ARM GAS  C:\Users\Admin\AppData\Local\Temp\cclol9KJ.s 			page 1


   1              		.cpu cortex-m3
   2              		.arch armv7-m
   3              		.fpu softvfp
   4              		.eabi_attribute 20, 1
   5              		.eabi_attribute 21, 1
   6              		.eabi_attribute 23, 3
   7              		.eabi_attribute 24, 1
   8              		.eabi_attribute 25, 1
   9              		.eabi_attribute 26, 1
  10              		.eabi_attribute 30, 1
  11              		.eabi_attribute 34, 1
  12              		.eabi_attribute 18, 4
  13              		.file	"main.c"
  14              		.text
  15              	.Ltext0:
  16              		.cfi_sections	.debug_frame
  17              		.section	.text.Error_Handler,"ax",%progbits
  18              		.align	1
  19              		.global	Error_Handler
  20              		.syntax unified
  21              		.thumb
  22              		.thumb_func
  24              	Error_Handler:
  25              	.LFB67:
  26              		.file 1 "Core/Src/main.c"
   1:Core/Src/main.c **** /* USER CODE BEGIN Header */
   2:Core/Src/main.c **** /**
   3:Core/Src/main.c ****  ******************************************************************************
   4:Core/Src/main.c ****  * @file           : main.c
   5:Core/Src/main.c ****  * @brief          : Main program body
   6:Core/Src/main.c ****  ******************************************************************************
   7:Core/Src/main.c ****  * @attention
   8:Core/Src/main.c ****  *
   9:Core/Src/main.c ****  * Copyright (c) 2023 STMicroelectronics.
  10:Core/Src/main.c ****  * All rights reserved.
  11:Core/Src/main.c ****  *
  12:Core/Src/main.c ****  * This software is licensed under terms that can be found in the LICENSE file
  13:Core/Src/main.c ****  * in the root directory of this software component.
  14:Core/Src/main.c ****  * If no LICENSE file comes with this software, it is provided AS-IS.
  15:Core/Src/main.c ****  *
  16:Core/Src/main.c ****  ******************************************************************************
  17:Core/Src/main.c ****  */
  18:Core/Src/main.c **** /* USER CODE END Header */
  19:Core/Src/main.c **** /* Includes ------------------------------------------------------------------*/
  20:Core/Src/main.c **** #include "main.h"
  21:Core/Src/main.c **** #include "tim.h"
  22:Core/Src/main.c **** #include "gpio.h"
  23:Core/Src/main.c **** 
  24:Core/Src/main.c **** /* Private includes ----------------------------------------------------------*/
  25:Core/Src/main.c **** /* USER CODE BEGIN Includes */
  26:Core/Src/main.c **** #include "dht11.h"
  27:Core/Src/main.c **** #include "string.h"
  28:Core/Src/main.c **** /* USER CODE END Includes */
  29:Core/Src/main.c **** 
  30:Core/Src/main.c **** /* Private typedef -----------------------------------------------------------*/
  31:Core/Src/main.c **** /* USER CODE BEGIN PTD */
  32:Core/Src/main.c **** 
ARM GAS  C:\Users\Admin\AppData\Local\Temp\cclol9KJ.s 			page 2


  33:Core/Src/main.c **** /* USER CODE END PTD */
  34:Core/Src/main.c **** 
  35:Core/Src/main.c **** /* Private define ------------------------------------------------------------*/
  36:Core/Src/main.c **** /* USER CODE BEGIN PD */
  37:Core/Src/main.c **** /* USER CODE END PD */
  38:Core/Src/main.c **** 
  39:Core/Src/main.c **** /* Private macro -------------------------------------------------------------*/
  40:Core/Src/main.c **** /* USER CODE BEGIN PM */
  41:Core/Src/main.c **** 
  42:Core/Src/main.c **** /* USER CODE END PM */
  43:Core/Src/main.c **** 
  44:Core/Src/main.c **** /* Private variables ---------------------------------------------------------*/
  45:Core/Src/main.c **** 
  46:Core/Src/main.c **** /* USER CODE BEGIN PV */
  47:Core/Src/main.c **** uint8_t Rh_byte1, Rh_byte2, Temp_byte1, Temp_byte2;
  48:Core/Src/main.c **** uint16_t SUM, RH, TEMP;
  49:Core/Src/main.c **** float Temperature = 0;
  50:Core/Src/main.c **** float Humidity = 0;
  51:Core/Src/main.c **** uint8_t Presence;
  52:Core/Src/main.c **** // DHT_DataTypedef DHT11_Data;
  53:Core/Src/main.c **** // float Temperature, Humidity;
  54:Core/Src/main.c **** /* USER CODE END PV */
  55:Core/Src/main.c **** 
  56:Core/Src/main.c **** /* Private function prototypes -----------------------------------------------*/
  57:Core/Src/main.c **** void SystemClock_Config(void);
  58:Core/Src/main.c **** /* USER CODE BEGIN PFP */
  59:Core/Src/main.c **** 
  60:Core/Src/main.c **** /* USER CODE END PFP */
  61:Core/Src/main.c **** 
  62:Core/Src/main.c **** /* Private user code ---------------------------------------------------------*/
  63:Core/Src/main.c **** /* USER CODE BEGIN 0 */
  64:Core/Src/main.c **** 
  65:Core/Src/main.c **** /* USER CODE END 0 */
  66:Core/Src/main.c **** 
  67:Core/Src/main.c **** /**
  68:Core/Src/main.c ****  * @brief  The application entry point.
  69:Core/Src/main.c ****  * @retval int
  70:Core/Src/main.c ****  */
  71:Core/Src/main.c **** int main(void)
  72:Core/Src/main.c **** {
  73:Core/Src/main.c ****   /* USER CODE BEGIN 1 */
  74:Core/Src/main.c **** 
  75:Core/Src/main.c ****   /* USER CODE END 1 */
  76:Core/Src/main.c **** 
  77:Core/Src/main.c ****   /* MCU Configuration--------------------------------------------------------*/
  78:Core/Src/main.c **** 
  79:Core/Src/main.c ****   /* Reset of all peripherals, Initializes the Flash interface and the Systick. */
  80:Core/Src/main.c ****   HAL_Init();
  81:Core/Src/main.c **** 
  82:Core/Src/main.c ****   /* USER CODE BEGIN Init */
  83:Core/Src/main.c **** 
  84:Core/Src/main.c ****   /* USER CODE END Init */
  85:Core/Src/main.c **** 
  86:Core/Src/main.c ****   /* Configure the system clock */
  87:Core/Src/main.c ****   SystemClock_Config();
  88:Core/Src/main.c **** 
  89:Core/Src/main.c ****   /* USER CODE BEGIN SysInit */
ARM GAS  C:\Users\Admin\AppData\Local\Temp\cclol9KJ.s 			page 3


  90:Core/Src/main.c **** 
  91:Core/Src/main.c ****   /* USER CODE END SysInit */
  92:Core/Src/main.c **** 
  93:Core/Src/main.c ****   /* Initialize all configured peripherals */
  94:Core/Src/main.c ****   MX_GPIO_Init();
  95:Core/Src/main.c ****   MX_TIM1_Init();
  96:Core/Src/main.c ****   /* USER CODE BEGIN 2 */
  97:Core/Src/main.c ****   HAL_TIM_Base_Start(&htim1);
  98:Core/Src/main.c ****   /* USER CODE END 2 */
  99:Core/Src/main.c **** 
 100:Core/Src/main.c ****   /* Infinite loop */
 101:Core/Src/main.c ****   /* USER CODE BEGIN WHILE */
 102:Core/Src/main.c ****   while (1)
 103:Core/Src/main.c ****   {
 104:Core/Src/main.c ****     /* USER CODE END WHILE */
 105:Core/Src/main.c **** 
 106:Core/Src/main.c ****     /* USER CODE BEGIN 3 */
 107:Core/Src/main.c ****     // 	  DHT_GetData(&DHT11_Data);
 108:Core/Src/main.c ****   	//   Temperature = DHT11_Data.Temperature;
 109:Core/Src/main.c **** 	  // Humidity = DHT11_Data.Humidity;
 110:Core/Src/main.c **** 	  // HAL_Delay(3000);
 111:Core/Src/main.c ****     DHT11_Start();
 112:Core/Src/main.c ****     Presence = DHT11_Check_Response();
 113:Core/Src/main.c ****     Rh_byte1 = DHT11_Read();
 114:Core/Src/main.c ****     Rh_byte2 = DHT11_Read();
 115:Core/Src/main.c ****     Temp_byte1 = DHT11_Read();
 116:Core/Src/main.c ****     Temp_byte2 = DHT11_Read();
 117:Core/Src/main.c ****     SUM = DHT11_Read();
 118:Core/Src/main.c **** 
 119:Core/Src/main.c ****     TEMP = Temp_byte1;
 120:Core/Src/main.c ****     RH = Rh_byte1;
 121:Core/Src/main.c **** 
 122:Core/Src/main.c ****     Temperature = (float)TEMP;
 123:Core/Src/main.c ****     Humidity = (float)RH;
 124:Core/Src/main.c ****   }
 125:Core/Src/main.c ****   /* USER CODE END 3 */
 126:Core/Src/main.c **** }
 127:Core/Src/main.c **** 
 128:Core/Src/main.c **** /**
 129:Core/Src/main.c ****  * @brief System Clock Configuration
 130:Core/Src/main.c ****  * @retval None
 131:Core/Src/main.c ****  */
 132:Core/Src/main.c **** void SystemClock_Config(void)
 133:Core/Src/main.c **** {
 134:Core/Src/main.c ****   RCC_OscInitTypeDef RCC_OscInitStruct = {0};
 135:Core/Src/main.c ****   RCC_ClkInitTypeDef RCC_ClkInitStruct = {0};
 136:Core/Src/main.c **** 
 137:Core/Src/main.c ****   /** Initializes the RCC Oscillators according to the specified parameters
 138:Core/Src/main.c ****    * in the RCC_OscInitTypeDef structure.
 139:Core/Src/main.c ****    */
 140:Core/Src/main.c ****   RCC_OscInitStruct.OscillatorType = RCC_OSCILLATORTYPE_HSE;
 141:Core/Src/main.c ****   RCC_OscInitStruct.HSEState = RCC_HSE_ON;
 142:Core/Src/main.c ****   RCC_OscInitStruct.HSEPredivValue = RCC_HSE_PREDIV_DIV1;
 143:Core/Src/main.c ****   RCC_OscInitStruct.HSIState = RCC_HSI_ON;
 144:Core/Src/main.c ****   RCC_OscInitStruct.PLL.PLLState = RCC_PLL_ON;
 145:Core/Src/main.c ****   RCC_OscInitStruct.PLL.PLLSource = RCC_PLLSOURCE_HSE;
 146:Core/Src/main.c ****   RCC_OscInitStruct.PLL.PLLMUL = RCC_PLL_MUL9;
ARM GAS  C:\Users\Admin\AppData\Local\Temp\cclol9KJ.s 			page 4


 147:Core/Src/main.c ****   if (HAL_RCC_OscConfig(&RCC_OscInitStruct) != HAL_OK)
 148:Core/Src/main.c ****   {
 149:Core/Src/main.c ****     Error_Handler();
 150:Core/Src/main.c ****   }
 151:Core/Src/main.c **** 
 152:Core/Src/main.c ****   /** Initializes the CPU, AHB and APB buses clocks
 153:Core/Src/main.c ****    */
 154:Core/Src/main.c ****   RCC_ClkInitStruct.ClockType = RCC_CLOCKTYPE_HCLK | RCC_CLOCKTYPE_SYSCLK | RCC_CLOCKTYPE_PCLK1 | R
 155:Core/Src/main.c ****   RCC_ClkInitStruct.SYSCLKSource = RCC_SYSCLKSOURCE_PLLCLK;
 156:Core/Src/main.c ****   RCC_ClkInitStruct.AHBCLKDivider = RCC_SYSCLK_DIV1;
 157:Core/Src/main.c ****   RCC_ClkInitStruct.APB1CLKDivider = RCC_HCLK_DIV2;
 158:Core/Src/main.c ****   RCC_ClkInitStruct.APB2CLKDivider = RCC_HCLK_DIV1;
 159:Core/Src/main.c **** 
 160:Core/Src/main.c ****   if (HAL_RCC_ClockConfig(&RCC_ClkInitStruct, FLASH_LATENCY_2) != HAL_OK)
 161:Core/Src/main.c ****   {
 162:Core/Src/main.c ****     Error_Handler();
 163:Core/Src/main.c ****   }
 164:Core/Src/main.c **** }
 165:Core/Src/main.c **** 
 166:Core/Src/main.c **** /* USER CODE BEGIN 4 */
 167:Core/Src/main.c **** 
 168:Core/Src/main.c **** /* USER CODE END 4 */
 169:Core/Src/main.c **** 
 170:Core/Src/main.c **** /**
 171:Core/Src/main.c ****  * @brief  This function is executed in case of error occurrence.
 172:Core/Src/main.c ****  * @retval None
 173:Core/Src/main.c ****  */
 174:Core/Src/main.c **** void Error_Handler(void)
 175:Core/Src/main.c **** {
  27              		.loc 1 175 1 view -0
  28              		.cfi_startproc
  29              		@ Volatile: function does not return.
  30              		@ args = 0, pretend = 0, frame = 0
  31              		@ frame_needed = 0, uses_anonymous_args = 0
  32              		@ link register save eliminated.
 176:Core/Src/main.c ****   /* USER CODE BEGIN Error_Handler_Debug */
 177:Core/Src/main.c ****   /* User can add his own implementation to report the HAL error return state */
 178:Core/Src/main.c ****   __disable_irq();
  33              		.loc 1 178 3 view .LVU1
  34              	.LBB4:
  35              	.LBI4:
  36              		.file 2 "Drivers/CMSIS/Include/cmsis_gcc.h"
   1:Drivers/CMSIS/Include/cmsis_gcc.h **** /**************************************************************************//**
   2:Drivers/CMSIS/Include/cmsis_gcc.h ****  * @file     cmsis_gcc.h
   3:Drivers/CMSIS/Include/cmsis_gcc.h ****  * @brief    CMSIS compiler GCC header file
   4:Drivers/CMSIS/Include/cmsis_gcc.h ****  * @version  V5.0.4
   5:Drivers/CMSIS/Include/cmsis_gcc.h ****  * @date     09. April 2018
   6:Drivers/CMSIS/Include/cmsis_gcc.h ****  ******************************************************************************/
   7:Drivers/CMSIS/Include/cmsis_gcc.h **** /*
   8:Drivers/CMSIS/Include/cmsis_gcc.h ****  * Copyright (c) 2009-2018 Arm Limited. All rights reserved.
   9:Drivers/CMSIS/Include/cmsis_gcc.h ****  *
  10:Drivers/CMSIS/Include/cmsis_gcc.h ****  * SPDX-License-Identifier: Apache-2.0
  11:Drivers/CMSIS/Include/cmsis_gcc.h ****  *
  12:Drivers/CMSIS/Include/cmsis_gcc.h ****  * Licensed under the Apache License, Version 2.0 (the License); you may
  13:Drivers/CMSIS/Include/cmsis_gcc.h ****  * not use this file except in compliance with the License.
  14:Drivers/CMSIS/Include/cmsis_gcc.h ****  * You may obtain a copy of the License at
  15:Drivers/CMSIS/Include/cmsis_gcc.h ****  *
ARM GAS  C:\Users\Admin\AppData\Local\Temp\cclol9KJ.s 			page 5


  16:Drivers/CMSIS/Include/cmsis_gcc.h ****  * www.apache.org/licenses/LICENSE-2.0
  17:Drivers/CMSIS/Include/cmsis_gcc.h ****  *
  18:Drivers/CMSIS/Include/cmsis_gcc.h ****  * Unless required by applicable law or agreed to in writing, software
  19:Drivers/CMSIS/Include/cmsis_gcc.h ****  * distributed under the License is distributed on an AS IS BASIS, WITHOUT
  20:Drivers/CMSIS/Include/cmsis_gcc.h ****  * WARRANTIES OR CONDITIONS OF ANY KIND, either express or implied.
  21:Drivers/CMSIS/Include/cmsis_gcc.h ****  * See the License for the specific language governing permissions and
  22:Drivers/CMSIS/Include/cmsis_gcc.h ****  * limitations under the License.
  23:Drivers/CMSIS/Include/cmsis_gcc.h ****  */
  24:Drivers/CMSIS/Include/cmsis_gcc.h **** 
  25:Drivers/CMSIS/Include/cmsis_gcc.h **** #ifndef __CMSIS_GCC_H
  26:Drivers/CMSIS/Include/cmsis_gcc.h **** #define __CMSIS_GCC_H
  27:Drivers/CMSIS/Include/cmsis_gcc.h **** 
  28:Drivers/CMSIS/Include/cmsis_gcc.h **** /* ignore some GCC warnings */
  29:Drivers/CMSIS/Include/cmsis_gcc.h **** #pragma GCC diagnostic push
  30:Drivers/CMSIS/Include/cmsis_gcc.h **** #pragma GCC diagnostic ignored "-Wsign-conversion"
  31:Drivers/CMSIS/Include/cmsis_gcc.h **** #pragma GCC diagnostic ignored "-Wconversion"
  32:Drivers/CMSIS/Include/cmsis_gcc.h **** #pragma GCC diagnostic ignored "-Wunused-parameter"
  33:Drivers/CMSIS/Include/cmsis_gcc.h **** 
  34:Drivers/CMSIS/Include/cmsis_gcc.h **** /* Fallback for __has_builtin */
  35:Drivers/CMSIS/Include/cmsis_gcc.h **** #ifndef __has_builtin
  36:Drivers/CMSIS/Include/cmsis_gcc.h ****   #define __has_builtin(x) (0)
  37:Drivers/CMSIS/Include/cmsis_gcc.h **** #endif
  38:Drivers/CMSIS/Include/cmsis_gcc.h **** 
  39:Drivers/CMSIS/Include/cmsis_gcc.h **** /* CMSIS compiler specific defines */
  40:Drivers/CMSIS/Include/cmsis_gcc.h **** #ifndef   __ASM
  41:Drivers/CMSIS/Include/cmsis_gcc.h ****   #define __ASM                                  __asm
  42:Drivers/CMSIS/Include/cmsis_gcc.h **** #endif
  43:Drivers/CMSIS/Include/cmsis_gcc.h **** #ifndef   __INLINE
  44:Drivers/CMSIS/Include/cmsis_gcc.h ****   #define __INLINE                               inline
  45:Drivers/CMSIS/Include/cmsis_gcc.h **** #endif
  46:Drivers/CMSIS/Include/cmsis_gcc.h **** #ifndef   __STATIC_INLINE
  47:Drivers/CMSIS/Include/cmsis_gcc.h ****   #define __STATIC_INLINE                        static inline
  48:Drivers/CMSIS/Include/cmsis_gcc.h **** #endif
  49:Drivers/CMSIS/Include/cmsis_gcc.h **** #ifndef   __STATIC_FORCEINLINE                 
  50:Drivers/CMSIS/Include/cmsis_gcc.h ****   #define __STATIC_FORCEINLINE                   __attribute__((always_inline)) static inline
  51:Drivers/CMSIS/Include/cmsis_gcc.h **** #endif                                           
  52:Drivers/CMSIS/Include/cmsis_gcc.h **** #ifndef   __NO_RETURN
  53:Drivers/CMSIS/Include/cmsis_gcc.h ****   #define __NO_RETURN                            __attribute__((__noreturn__))
  54:Drivers/CMSIS/Include/cmsis_gcc.h **** #endif
  55:Drivers/CMSIS/Include/cmsis_gcc.h **** #ifndef   __USED
  56:Drivers/CMSIS/Include/cmsis_gcc.h ****   #define __USED                                 __attribute__((used))
  57:Drivers/CMSIS/Include/cmsis_gcc.h **** #endif
  58:Drivers/CMSIS/Include/cmsis_gcc.h **** #ifndef   __WEAK
  59:Drivers/CMSIS/Include/cmsis_gcc.h ****   #define __WEAK                                 __attribute__((weak))
  60:Drivers/CMSIS/Include/cmsis_gcc.h **** #endif
  61:Drivers/CMSIS/Include/cmsis_gcc.h **** #ifndef   __PACKED
  62:Drivers/CMSIS/Include/cmsis_gcc.h ****   #define __PACKED                               __attribute__((packed, aligned(1)))
  63:Drivers/CMSIS/Include/cmsis_gcc.h **** #endif
  64:Drivers/CMSIS/Include/cmsis_gcc.h **** #ifndef   __PACKED_STRUCT
  65:Drivers/CMSIS/Include/cmsis_gcc.h ****   #define __PACKED_STRUCT                        struct __attribute__((packed, aligned(1)))
  66:Drivers/CMSIS/Include/cmsis_gcc.h **** #endif
  67:Drivers/CMSIS/Include/cmsis_gcc.h **** #ifndef   __PACKED_UNION
  68:Drivers/CMSIS/Include/cmsis_gcc.h ****   #define __PACKED_UNION                         union __attribute__((packed, aligned(1)))
  69:Drivers/CMSIS/Include/cmsis_gcc.h **** #endif
  70:Drivers/CMSIS/Include/cmsis_gcc.h **** #ifndef   __UNALIGNED_UINT32        /* deprecated */
  71:Drivers/CMSIS/Include/cmsis_gcc.h ****   #pragma GCC diagnostic push
  72:Drivers/CMSIS/Include/cmsis_gcc.h ****   #pragma GCC diagnostic ignored "-Wpacked"
ARM GAS  C:\Users\Admin\AppData\Local\Temp\cclol9KJ.s 			page 6


  73:Drivers/CMSIS/Include/cmsis_gcc.h ****   #pragma GCC diagnostic ignored "-Wattributes"
  74:Drivers/CMSIS/Include/cmsis_gcc.h ****   struct __attribute__((packed)) T_UINT32 { uint32_t v; };
  75:Drivers/CMSIS/Include/cmsis_gcc.h ****   #pragma GCC diagnostic pop
  76:Drivers/CMSIS/Include/cmsis_gcc.h ****   #define __UNALIGNED_UINT32(x)                  (((struct T_UINT32 *)(x))->v)
  77:Drivers/CMSIS/Include/cmsis_gcc.h **** #endif
  78:Drivers/CMSIS/Include/cmsis_gcc.h **** #ifndef   __UNALIGNED_UINT16_WRITE
  79:Drivers/CMSIS/Include/cmsis_gcc.h ****   #pragma GCC diagnostic push
  80:Drivers/CMSIS/Include/cmsis_gcc.h ****   #pragma GCC diagnostic ignored "-Wpacked"
  81:Drivers/CMSIS/Include/cmsis_gcc.h ****   #pragma GCC diagnostic ignored "-Wattributes"
  82:Drivers/CMSIS/Include/cmsis_gcc.h ****   __PACKED_STRUCT T_UINT16_WRITE { uint16_t v; };
  83:Drivers/CMSIS/Include/cmsis_gcc.h ****   #pragma GCC diagnostic pop
  84:Drivers/CMSIS/Include/cmsis_gcc.h ****   #define __UNALIGNED_UINT16_WRITE(addr, val)    (void)((((struct T_UINT16_WRITE *)(void *)(addr))-
  85:Drivers/CMSIS/Include/cmsis_gcc.h **** #endif
  86:Drivers/CMSIS/Include/cmsis_gcc.h **** #ifndef   __UNALIGNED_UINT16_READ
  87:Drivers/CMSIS/Include/cmsis_gcc.h ****   #pragma GCC diagnostic push
  88:Drivers/CMSIS/Include/cmsis_gcc.h ****   #pragma GCC diagnostic ignored "-Wpacked"
  89:Drivers/CMSIS/Include/cmsis_gcc.h ****   #pragma GCC diagnostic ignored "-Wattributes"
  90:Drivers/CMSIS/Include/cmsis_gcc.h ****   __PACKED_STRUCT T_UINT16_READ { uint16_t v; };
  91:Drivers/CMSIS/Include/cmsis_gcc.h ****   #pragma GCC diagnostic pop
  92:Drivers/CMSIS/Include/cmsis_gcc.h ****   #define __UNALIGNED_UINT16_READ(addr)          (((const struct T_UINT16_READ *)(const void *)(add
  93:Drivers/CMSIS/Include/cmsis_gcc.h **** #endif
  94:Drivers/CMSIS/Include/cmsis_gcc.h **** #ifndef   __UNALIGNED_UINT32_WRITE
  95:Drivers/CMSIS/Include/cmsis_gcc.h ****   #pragma GCC diagnostic push
  96:Drivers/CMSIS/Include/cmsis_gcc.h ****   #pragma GCC diagnostic ignored "-Wpacked"
  97:Drivers/CMSIS/Include/cmsis_gcc.h ****   #pragma GCC diagnostic ignored "-Wattributes"
  98:Drivers/CMSIS/Include/cmsis_gcc.h ****   __PACKED_STRUCT T_UINT32_WRITE { uint32_t v; };
  99:Drivers/CMSIS/Include/cmsis_gcc.h ****   #pragma GCC diagnostic pop
 100:Drivers/CMSIS/Include/cmsis_gcc.h ****   #define __UNALIGNED_UINT32_WRITE(addr, val)    (void)((((struct T_UINT32_WRITE *)(void *)(addr))-
 101:Drivers/CMSIS/Include/cmsis_gcc.h **** #endif
 102:Drivers/CMSIS/Include/cmsis_gcc.h **** #ifndef   __UNALIGNED_UINT32_READ
 103:Drivers/CMSIS/Include/cmsis_gcc.h ****   #pragma GCC diagnostic push
 104:Drivers/CMSIS/Include/cmsis_gcc.h ****   #pragma GCC diagnostic ignored "-Wpacked"
 105:Drivers/CMSIS/Include/cmsis_gcc.h ****   #pragma GCC diagnostic ignored "-Wattributes"
 106:Drivers/CMSIS/Include/cmsis_gcc.h ****   __PACKED_STRUCT T_UINT32_READ { uint32_t v; };
 107:Drivers/CMSIS/Include/cmsis_gcc.h ****   #pragma GCC diagnostic pop
 108:Drivers/CMSIS/Include/cmsis_gcc.h ****   #define __UNALIGNED_UINT32_READ(addr)          (((const struct T_UINT32_READ *)(const void *)(add
 109:Drivers/CMSIS/Include/cmsis_gcc.h **** #endif
 110:Drivers/CMSIS/Include/cmsis_gcc.h **** #ifndef   __ALIGNED
 111:Drivers/CMSIS/Include/cmsis_gcc.h ****   #define __ALIGNED(x)                           __attribute__((aligned(x)))
 112:Drivers/CMSIS/Include/cmsis_gcc.h **** #endif
 113:Drivers/CMSIS/Include/cmsis_gcc.h **** #ifndef   __RESTRICT
 114:Drivers/CMSIS/Include/cmsis_gcc.h ****   #define __RESTRICT                             __restrict
 115:Drivers/CMSIS/Include/cmsis_gcc.h **** #endif
 116:Drivers/CMSIS/Include/cmsis_gcc.h **** 
 117:Drivers/CMSIS/Include/cmsis_gcc.h **** 
 118:Drivers/CMSIS/Include/cmsis_gcc.h **** /* ###########################  Core Function Access  ########################### */
 119:Drivers/CMSIS/Include/cmsis_gcc.h **** /** \ingroup  CMSIS_Core_FunctionInterface
 120:Drivers/CMSIS/Include/cmsis_gcc.h ****     \defgroup CMSIS_Core_RegAccFunctions CMSIS Core Register Access Functions
 121:Drivers/CMSIS/Include/cmsis_gcc.h ****   @{
 122:Drivers/CMSIS/Include/cmsis_gcc.h ****  */
 123:Drivers/CMSIS/Include/cmsis_gcc.h **** 
 124:Drivers/CMSIS/Include/cmsis_gcc.h **** /**
 125:Drivers/CMSIS/Include/cmsis_gcc.h ****   \brief   Enable IRQ Interrupts
 126:Drivers/CMSIS/Include/cmsis_gcc.h ****   \details Enables IRQ interrupts by clearing the I-bit in the CPSR.
 127:Drivers/CMSIS/Include/cmsis_gcc.h ****            Can only be executed in Privileged modes.
 128:Drivers/CMSIS/Include/cmsis_gcc.h ****  */
 129:Drivers/CMSIS/Include/cmsis_gcc.h **** __STATIC_FORCEINLINE void __enable_irq(void)
ARM GAS  C:\Users\Admin\AppData\Local\Temp\cclol9KJ.s 			page 7


 130:Drivers/CMSIS/Include/cmsis_gcc.h **** {
 131:Drivers/CMSIS/Include/cmsis_gcc.h ****   __ASM volatile ("cpsie i" : : : "memory");
 132:Drivers/CMSIS/Include/cmsis_gcc.h **** }
 133:Drivers/CMSIS/Include/cmsis_gcc.h **** 
 134:Drivers/CMSIS/Include/cmsis_gcc.h **** 
 135:Drivers/CMSIS/Include/cmsis_gcc.h **** /**
 136:Drivers/CMSIS/Include/cmsis_gcc.h ****   \brief   Disable IRQ Interrupts
 137:Drivers/CMSIS/Include/cmsis_gcc.h ****   \details Disables IRQ interrupts by setting the I-bit in the CPSR.
 138:Drivers/CMSIS/Include/cmsis_gcc.h ****            Can only be executed in Privileged modes.
 139:Drivers/CMSIS/Include/cmsis_gcc.h ****  */
 140:Drivers/CMSIS/Include/cmsis_gcc.h **** __STATIC_FORCEINLINE void __disable_irq(void)
  37              		.loc 2 140 27 view .LVU2
  38              	.LBB5:
 141:Drivers/CMSIS/Include/cmsis_gcc.h **** {
 142:Drivers/CMSIS/Include/cmsis_gcc.h ****   __ASM volatile ("cpsid i" : : : "memory");
  39              		.loc 2 142 3 view .LVU3
  40              		.syntax unified
  41              	@ 142 "Drivers/CMSIS/Include/cmsis_gcc.h" 1
  42 0000 72B6     		cpsid i
  43              	@ 0 "" 2
  44              		.thumb
  45              		.syntax unified
  46              	.L2:
  47              	.LBE5:
  48              	.LBE4:
 179:Core/Src/main.c ****   while (1)
  49              		.loc 1 179 3 discriminator 1 view .LVU4
 180:Core/Src/main.c ****   {
 181:Core/Src/main.c ****   }
  50              		.loc 1 181 3 discriminator 1 view .LVU5
 179:Core/Src/main.c ****   while (1)
  51              		.loc 1 179 9 discriminator 1 view .LVU6
  52 0002 FEE7     		b	.L2
  53              		.cfi_endproc
  54              	.LFE67:
  56              		.section	.text.SystemClock_Config,"ax",%progbits
  57              		.align	1
  58              		.global	SystemClock_Config
  59              		.syntax unified
  60              		.thumb
  61              		.thumb_func
  63              	SystemClock_Config:
  64              	.LFB66:
 133:Core/Src/main.c ****   RCC_OscInitTypeDef RCC_OscInitStruct = {0};
  65              		.loc 1 133 1 view -0
  66              		.cfi_startproc
  67              		@ args = 0, pretend = 0, frame = 64
  68              		@ frame_needed = 0, uses_anonymous_args = 0
  69 0000 00B5     		push	{lr}
  70              	.LCFI0:
  71              		.cfi_def_cfa_offset 4
  72              		.cfi_offset 14, -4
  73 0002 91B0     		sub	sp, sp, #68
  74              	.LCFI1:
  75              		.cfi_def_cfa_offset 72
 134:Core/Src/main.c ****   RCC_ClkInitTypeDef RCC_ClkInitStruct = {0};
  76              		.loc 1 134 3 view .LVU8
ARM GAS  C:\Users\Admin\AppData\Local\Temp\cclol9KJ.s 			page 8


 134:Core/Src/main.c ****   RCC_ClkInitTypeDef RCC_ClkInitStruct = {0};
  77              		.loc 1 134 22 is_stmt 0 view .LVU9
  78 0004 2822     		movs	r2, #40
  79 0006 0021     		movs	r1, #0
  80 0008 06A8     		add	r0, sp, #24
  81 000a FFF7FEFF 		bl	memset
  82              	.LVL0:
 135:Core/Src/main.c **** 
  83              		.loc 1 135 3 is_stmt 1 view .LVU10
 135:Core/Src/main.c **** 
  84              		.loc 1 135 22 is_stmt 0 view .LVU11
  85 000e 0023     		movs	r3, #0
  86 0010 0193     		str	r3, [sp, #4]
  87 0012 0293     		str	r3, [sp, #8]
  88 0014 0393     		str	r3, [sp, #12]
  89 0016 0493     		str	r3, [sp, #16]
  90 0018 0593     		str	r3, [sp, #20]
 140:Core/Src/main.c ****   RCC_OscInitStruct.HSEState = RCC_HSE_ON;
  91              		.loc 1 140 3 is_stmt 1 view .LVU12
 140:Core/Src/main.c ****   RCC_OscInitStruct.HSEState = RCC_HSE_ON;
  92              		.loc 1 140 36 is_stmt 0 view .LVU13
  93 001a 0122     		movs	r2, #1
  94 001c 0692     		str	r2, [sp, #24]
 141:Core/Src/main.c ****   RCC_OscInitStruct.HSEPredivValue = RCC_HSE_PREDIV_DIV1;
  95              		.loc 1 141 3 is_stmt 1 view .LVU14
 141:Core/Src/main.c ****   RCC_OscInitStruct.HSEPredivValue = RCC_HSE_PREDIV_DIV1;
  96              		.loc 1 141 30 is_stmt 0 view .LVU15
  97 001e 4FF48033 		mov	r3, #65536
  98 0022 0793     		str	r3, [sp, #28]
 142:Core/Src/main.c ****   RCC_OscInitStruct.HSIState = RCC_HSI_ON;
  99              		.loc 1 142 3 is_stmt 1 view .LVU16
 143:Core/Src/main.c ****   RCC_OscInitStruct.PLL.PLLState = RCC_PLL_ON;
 100              		.loc 1 143 3 view .LVU17
 143:Core/Src/main.c ****   RCC_OscInitStruct.PLL.PLLState = RCC_PLL_ON;
 101              		.loc 1 143 30 is_stmt 0 view .LVU18
 102 0024 0A92     		str	r2, [sp, #40]
 144:Core/Src/main.c ****   RCC_OscInitStruct.PLL.PLLSource = RCC_PLLSOURCE_HSE;
 103              		.loc 1 144 3 is_stmt 1 view .LVU19
 144:Core/Src/main.c ****   RCC_OscInitStruct.PLL.PLLSource = RCC_PLLSOURCE_HSE;
 104              		.loc 1 144 34 is_stmt 0 view .LVU20
 105 0026 0222     		movs	r2, #2
 106 0028 0D92     		str	r2, [sp, #52]
 145:Core/Src/main.c ****   RCC_OscInitStruct.PLL.PLLMUL = RCC_PLL_MUL9;
 107              		.loc 1 145 3 is_stmt 1 view .LVU21
 145:Core/Src/main.c ****   RCC_OscInitStruct.PLL.PLLMUL = RCC_PLL_MUL9;
 108              		.loc 1 145 35 is_stmt 0 view .LVU22
 109 002a 0E93     		str	r3, [sp, #56]
 146:Core/Src/main.c ****   if (HAL_RCC_OscConfig(&RCC_OscInitStruct) != HAL_OK)
 110              		.loc 1 146 3 is_stmt 1 view .LVU23
 146:Core/Src/main.c ****   if (HAL_RCC_OscConfig(&RCC_OscInitStruct) != HAL_OK)
 111              		.loc 1 146 32 is_stmt 0 view .LVU24
 112 002c 4FF4E013 		mov	r3, #1835008
 113 0030 0F93     		str	r3, [sp, #60]
 147:Core/Src/main.c ****   {
 114              		.loc 1 147 3 is_stmt 1 view .LVU25
 147:Core/Src/main.c ****   {
 115              		.loc 1 147 7 is_stmt 0 view .LVU26
ARM GAS  C:\Users\Admin\AppData\Local\Temp\cclol9KJ.s 			page 9


 116 0032 06A8     		add	r0, sp, #24
 117 0034 FFF7FEFF 		bl	HAL_RCC_OscConfig
 118              	.LVL1:
 147:Core/Src/main.c ****   {
 119              		.loc 1 147 6 view .LVU27
 120 0038 80B9     		cbnz	r0, .L7
 154:Core/Src/main.c ****   RCC_ClkInitStruct.SYSCLKSource = RCC_SYSCLKSOURCE_PLLCLK;
 121              		.loc 1 154 3 is_stmt 1 view .LVU28
 154:Core/Src/main.c ****   RCC_ClkInitStruct.SYSCLKSource = RCC_SYSCLKSOURCE_PLLCLK;
 122              		.loc 1 154 31 is_stmt 0 view .LVU29
 123 003a 0F23     		movs	r3, #15
 124 003c 0193     		str	r3, [sp, #4]
 155:Core/Src/main.c ****   RCC_ClkInitStruct.AHBCLKDivider = RCC_SYSCLK_DIV1;
 125              		.loc 1 155 3 is_stmt 1 view .LVU30
 155:Core/Src/main.c ****   RCC_ClkInitStruct.AHBCLKDivider = RCC_SYSCLK_DIV1;
 126              		.loc 1 155 34 is_stmt 0 view .LVU31
 127 003e 0221     		movs	r1, #2
 128 0040 0291     		str	r1, [sp, #8]
 156:Core/Src/main.c ****   RCC_ClkInitStruct.APB1CLKDivider = RCC_HCLK_DIV2;
 129              		.loc 1 156 3 is_stmt 1 view .LVU32
 156:Core/Src/main.c ****   RCC_ClkInitStruct.APB1CLKDivider = RCC_HCLK_DIV2;
 130              		.loc 1 156 35 is_stmt 0 view .LVU33
 131 0042 0023     		movs	r3, #0
 132 0044 0393     		str	r3, [sp, #12]
 157:Core/Src/main.c ****   RCC_ClkInitStruct.APB2CLKDivider = RCC_HCLK_DIV1;
 133              		.loc 1 157 3 is_stmt 1 view .LVU34
 157:Core/Src/main.c ****   RCC_ClkInitStruct.APB2CLKDivider = RCC_HCLK_DIV1;
 134              		.loc 1 157 36 is_stmt 0 view .LVU35
 135 0046 4FF48062 		mov	r2, #1024
 136 004a 0492     		str	r2, [sp, #16]
 158:Core/Src/main.c **** 
 137              		.loc 1 158 3 is_stmt 1 view .LVU36
 158:Core/Src/main.c **** 
 138              		.loc 1 158 36 is_stmt 0 view .LVU37
 139 004c 0593     		str	r3, [sp, #20]
 160:Core/Src/main.c ****   {
 140              		.loc 1 160 3 is_stmt 1 view .LVU38
 160:Core/Src/main.c ****   {
 141              		.loc 1 160 7 is_stmt 0 view .LVU39
 142 004e 01A8     		add	r0, sp, #4
 143 0050 FFF7FEFF 		bl	HAL_RCC_ClockConfig
 144              	.LVL2:
 160:Core/Src/main.c ****   {
 145              		.loc 1 160 6 view .LVU40
 146 0054 20B9     		cbnz	r0, .L8
 164:Core/Src/main.c **** 
 147              		.loc 1 164 1 view .LVU41
 148 0056 11B0     		add	sp, sp, #68
 149              	.LCFI2:
 150              		.cfi_remember_state
 151              		.cfi_def_cfa_offset 4
 152              		@ sp needed
 153 0058 5DF804FB 		ldr	pc, [sp], #4
 154              	.L7:
 155              	.LCFI3:
 156              		.cfi_restore_state
 149:Core/Src/main.c ****   }
ARM GAS  C:\Users\Admin\AppData\Local\Temp\cclol9KJ.s 			page 10


 157              		.loc 1 149 5 is_stmt 1 view .LVU42
 158 005c FFF7FEFF 		bl	Error_Handler
 159              	.LVL3:
 160              	.L8:
 162:Core/Src/main.c ****   }
 161              		.loc 1 162 5 view .LVU43
 162 0060 FFF7FEFF 		bl	Error_Handler
 163              	.LVL4:
 164              		.cfi_endproc
 165              	.LFE66:
 167              		.global	__aeabi_ui2f
 168              		.section	.text.main,"ax",%progbits
 169              		.align	1
 170              		.global	main
 171              		.syntax unified
 172              		.thumb
 173              		.thumb_func
 175              	main:
 176              	.LFB65:
  72:Core/Src/main.c ****   /* USER CODE BEGIN 1 */
 177              		.loc 1 72 1 view -0
 178              		.cfi_startproc
 179              		@ Volatile: function does not return.
 180              		@ args = 0, pretend = 0, frame = 0
 181              		@ frame_needed = 0, uses_anonymous_args = 0
 182 0000 08B5     		push	{r3, lr}
 183              	.LCFI4:
 184              		.cfi_def_cfa_offset 8
 185              		.cfi_offset 3, -8
 186              		.cfi_offset 14, -4
  80:Core/Src/main.c **** 
 187              		.loc 1 80 3 view .LVU45
 188 0002 FFF7FEFF 		bl	HAL_Init
 189              	.LVL5:
  87:Core/Src/main.c **** 
 190              		.loc 1 87 3 view .LVU46
 191 0006 FFF7FEFF 		bl	SystemClock_Config
 192              	.LVL6:
  94:Core/Src/main.c ****   MX_TIM1_Init();
 193              		.loc 1 94 3 view .LVU47
 194 000a FFF7FEFF 		bl	MX_GPIO_Init
 195              	.LVL7:
  95:Core/Src/main.c ****   /* USER CODE BEGIN 2 */
 196              		.loc 1 95 3 view .LVU48
 197 000e FFF7FEFF 		bl	MX_TIM1_Init
 198              	.LVL8:
  97:Core/Src/main.c ****   /* USER CODE END 2 */
 199              		.loc 1 97 3 view .LVU49
 200 0012 1648     		ldr	r0, .L12
 201 0014 FFF7FEFF 		bl	HAL_TIM_Base_Start
 202              	.LVL9:
 203              	.L10:
 102:Core/Src/main.c ****   {
 204              		.loc 1 102 3 discriminator 1 view .LVU50
 111:Core/Src/main.c ****     Presence = DHT11_Check_Response();
 205              		.loc 1 111 5 discriminator 1 view .LVU51
 206 0018 FFF7FEFF 		bl	DHT11_Start
ARM GAS  C:\Users\Admin\AppData\Local\Temp\cclol9KJ.s 			page 11


 207              	.LVL10:
 112:Core/Src/main.c ****     Rh_byte1 = DHT11_Read();
 208              		.loc 1 112 5 discriminator 1 view .LVU52
 112:Core/Src/main.c ****     Rh_byte1 = DHT11_Read();
 209              		.loc 1 112 16 is_stmt 0 discriminator 1 view .LVU53
 210 001c FFF7FEFF 		bl	DHT11_Check_Response
 211              	.LVL11:
 112:Core/Src/main.c ****     Rh_byte1 = DHT11_Read();
 212              		.loc 1 112 14 discriminator 1 view .LVU54
 213 0020 134B     		ldr	r3, .L12+4
 214 0022 1870     		strb	r0, [r3]
 113:Core/Src/main.c ****     Rh_byte2 = DHT11_Read();
 215              		.loc 1 113 5 is_stmt 1 discriminator 1 view .LVU55
 113:Core/Src/main.c ****     Rh_byte2 = DHT11_Read();
 216              		.loc 1 113 16 is_stmt 0 discriminator 1 view .LVU56
 217 0024 FFF7FEFF 		bl	DHT11_Read
 218              	.LVL12:
 113:Core/Src/main.c ****     Rh_byte2 = DHT11_Read();
 219              		.loc 1 113 14 discriminator 1 view .LVU57
 220 0028 124C     		ldr	r4, .L12+8
 221 002a 2070     		strb	r0, [r4]
 114:Core/Src/main.c ****     Temp_byte1 = DHT11_Read();
 222              		.loc 1 114 5 is_stmt 1 discriminator 1 view .LVU58
 114:Core/Src/main.c ****     Temp_byte1 = DHT11_Read();
 223              		.loc 1 114 16 is_stmt 0 discriminator 1 view .LVU59
 224 002c FFF7FEFF 		bl	DHT11_Read
 225              	.LVL13:
 114:Core/Src/main.c ****     Temp_byte1 = DHT11_Read();
 226              		.loc 1 114 14 discriminator 1 view .LVU60
 227 0030 114B     		ldr	r3, .L12+12
 228 0032 1870     		strb	r0, [r3]
 115:Core/Src/main.c ****     Temp_byte2 = DHT11_Read();
 229              		.loc 1 115 5 is_stmt 1 discriminator 1 view .LVU61
 115:Core/Src/main.c ****     Temp_byte2 = DHT11_Read();
 230              		.loc 1 115 18 is_stmt 0 discriminator 1 view .LVU62
 231 0034 FFF7FEFF 		bl	DHT11_Read
 232              	.LVL14:
 115:Core/Src/main.c ****     Temp_byte2 = DHT11_Read();
 233              		.loc 1 115 16 discriminator 1 view .LVU63
 234 0038 104D     		ldr	r5, .L12+16
 235 003a 2870     		strb	r0, [r5]
 116:Core/Src/main.c ****     SUM = DHT11_Read();
 236              		.loc 1 116 5 is_stmt 1 discriminator 1 view .LVU64
 116:Core/Src/main.c ****     SUM = DHT11_Read();
 237              		.loc 1 116 18 is_stmt 0 discriminator 1 view .LVU65
 238 003c FFF7FEFF 		bl	DHT11_Read
 239              	.LVL15:
 116:Core/Src/main.c ****     SUM = DHT11_Read();
 240              		.loc 1 116 16 discriminator 1 view .LVU66
 241 0040 0F4B     		ldr	r3, .L12+20
 242 0042 1870     		strb	r0, [r3]
 117:Core/Src/main.c **** 
 243              		.loc 1 117 5 is_stmt 1 discriminator 1 view .LVU67
 117:Core/Src/main.c **** 
 244              		.loc 1 117 11 is_stmt 0 discriminator 1 view .LVU68
 245 0044 FFF7FEFF 		bl	DHT11_Read
 246              	.LVL16:
ARM GAS  C:\Users\Admin\AppData\Local\Temp\cclol9KJ.s 			page 12


 117:Core/Src/main.c **** 
 247              		.loc 1 117 9 discriminator 1 view .LVU69
 248 0048 0E4B     		ldr	r3, .L12+24
 249 004a 1880     		strh	r0, [r3]	@ movhi
 119:Core/Src/main.c ****     RH = Rh_byte1;
 250              		.loc 1 119 5 is_stmt 1 discriminator 1 view .LVU70
 119:Core/Src/main.c ****     RH = Rh_byte1;
 251              		.loc 1 119 10 is_stmt 0 discriminator 1 view .LVU71
 252 004c 2878     		ldrb	r0, [r5]	@ zero_extendqisi2
 253 004e 0E4B     		ldr	r3, .L12+28
 254 0050 1880     		strh	r0, [r3]	@ movhi
 120:Core/Src/main.c **** 
 255              		.loc 1 120 5 is_stmt 1 discriminator 1 view .LVU72
 120:Core/Src/main.c **** 
 256              		.loc 1 120 8 is_stmt 0 discriminator 1 view .LVU73
 257 0052 2478     		ldrb	r4, [r4]	@ zero_extendqisi2
 258 0054 0D4B     		ldr	r3, .L12+32
 259 0056 1C80     		strh	r4, [r3]	@ movhi
 122:Core/Src/main.c ****     Humidity = (float)RH;
 260              		.loc 1 122 5 is_stmt 1 discriminator 1 view .LVU74
 122:Core/Src/main.c ****     Humidity = (float)RH;
 261              		.loc 1 122 19 is_stmt 0 discriminator 1 view .LVU75
 262 0058 FFF7FEFF 		bl	__aeabi_ui2f
 263              	.LVL17:
 122:Core/Src/main.c ****     Humidity = (float)RH;
 264              		.loc 1 122 17 discriminator 1 view .LVU76
 265 005c 0C4B     		ldr	r3, .L12+36
 266 005e 1860     		str	r0, [r3]	@ float
 123:Core/Src/main.c ****   }
 267              		.loc 1 123 5 is_stmt 1 discriminator 1 view .LVU77
 123:Core/Src/main.c ****   }
 268              		.loc 1 123 16 is_stmt 0 discriminator 1 view .LVU78
 269 0060 2046     		mov	r0, r4
 270 0062 FFF7FEFF 		bl	__aeabi_ui2f
 271              	.LVL18:
 123:Core/Src/main.c ****   }
 272              		.loc 1 123 14 discriminator 1 view .LVU79
 273 0066 0B4B     		ldr	r3, .L12+40
 274 0068 1860     		str	r0, [r3]	@ float
 102:Core/Src/main.c ****   {
 275              		.loc 1 102 9 is_stmt 1 discriminator 1 view .LVU80
 276 006a D5E7     		b	.L10
 277              	.L13:
 278              		.align	2
 279              	.L12:
 280 006c 00000000 		.word	htim1
 281 0070 00000000 		.word	.LANCHOR0
 282 0074 00000000 		.word	.LANCHOR1
 283 0078 00000000 		.word	.LANCHOR2
 284 007c 00000000 		.word	.LANCHOR3
 285 0080 00000000 		.word	.LANCHOR4
 286 0084 00000000 		.word	.LANCHOR5
 287 0088 00000000 		.word	.LANCHOR6
 288 008c 00000000 		.word	.LANCHOR7
 289 0090 00000000 		.word	.LANCHOR8
 290 0094 00000000 		.word	.LANCHOR9
 291              		.cfi_endproc
ARM GAS  C:\Users\Admin\AppData\Local\Temp\cclol9KJ.s 			page 13


 292              	.LFE65:
 294              		.global	Presence
 295              		.global	Humidity
 296              		.global	Temperature
 297              		.global	TEMP
 298              		.global	RH
 299              		.global	SUM
 300              		.global	Temp_byte2
 301              		.global	Temp_byte1
 302              		.global	Rh_byte2
 303              		.global	Rh_byte1
 304              		.section	.bss.Humidity,"aw",%nobits
 305              		.align	2
 306              		.set	.LANCHOR9,. + 0
 309              	Humidity:
 310 0000 00000000 		.space	4
 311              		.section	.bss.Presence,"aw",%nobits
 312              		.set	.LANCHOR0,. + 0
 315              	Presence:
 316 0000 00       		.space	1
 317              		.section	.bss.RH,"aw",%nobits
 318              		.align	1
 319              		.set	.LANCHOR7,. + 0
 322              	RH:
 323 0000 0000     		.space	2
 324              		.section	.bss.Rh_byte1,"aw",%nobits
 325              		.set	.LANCHOR1,. + 0
 328              	Rh_byte1:
 329 0000 00       		.space	1
 330              		.section	.bss.Rh_byte2,"aw",%nobits
 331              		.set	.LANCHOR2,. + 0
 334              	Rh_byte2:
 335 0000 00       		.space	1
 336              		.section	.bss.SUM,"aw",%nobits
 337              		.align	1
 338              		.set	.LANCHOR5,. + 0
 341              	SUM:
 342 0000 0000     		.space	2
 343              		.section	.bss.TEMP,"aw",%nobits
 344              		.align	1
 345              		.set	.LANCHOR6,. + 0
 348              	TEMP:
 349 0000 0000     		.space	2
 350              		.section	.bss.Temp_byte1,"aw",%nobits
 351              		.set	.LANCHOR3,. + 0
 354              	Temp_byte1:
 355 0000 00       		.space	1
 356              		.section	.bss.Temp_byte2,"aw",%nobits
 357              		.set	.LANCHOR4,. + 0
 360              	Temp_byte2:
 361 0000 00       		.space	1
 362              		.section	.bss.Temperature,"aw",%nobits
 363              		.align	2
 364              		.set	.LANCHOR8,. + 0
 367              	Temperature:
 368 0000 00000000 		.space	4
 369              		.text
ARM GAS  C:\Users\Admin\AppData\Local\Temp\cclol9KJ.s 			page 14


 370              	.Letext0:
 371              		.file 3 "d:\\10 2021.10\\arm-none-eabi\\include\\machine\\_default_types.h"
 372              		.file 4 "d:\\10 2021.10\\arm-none-eabi\\include\\sys\\_stdint.h"
 373              		.file 5 "Drivers/CMSIS/Device/ST/STM32F1xx/Include/stm32f103xb.h"
 374              		.file 6 "Drivers/STM32F1xx_HAL_Driver/Inc/stm32f1xx_hal_def.h"
 375              		.file 7 "Drivers/STM32F1xx_HAL_Driver/Inc/stm32f1xx_hal_rcc.h"
 376              		.file 8 "Drivers/STM32F1xx_HAL_Driver/Inc/stm32f1xx_hal_rcc_ex.h"
 377              		.file 9 "Drivers/STM32F1xx_HAL_Driver/Inc/stm32f1xx_hal_dma.h"
 378              		.file 10 "Drivers/STM32F1xx_HAL_Driver/Inc/stm32f1xx_hal_tim.h"
 379              		.file 11 "Core/Inc/tim.h"
 380              		.file 12 "Drivers/STM32F1xx_HAL_Driver/Inc/stm32f1xx_hal.h"
 381              		.file 13 "Core/Inc/gpio.h"
 382              		.file 14 "Core/Inc/dht11.h"
 383              		.file 15 "<built-in>"
ARM GAS  C:\Users\Admin\AppData\Local\Temp\cclol9KJ.s 			page 15

