ARM GAS  C:\Users\Admin\AppData\Local\Temp\ccgbUHXa.s 			page 1


   1              		.cpu cortex-m3
   2              		.arch armv7-m
   3              		.fpu softvfp
   4              		.eabi_attribute 20, 1
   5              		.eabi_attribute 21, 1
   6              		.eabi_attribute 23, 3
   7              		.eabi_attribute 24, 1
   8              		.eabi_attribute 25, 1
   9              		.eabi_attribute 26, 1
  10              		.eabi_attribute 30, 1
  11              		.eabi_attribute 34, 1
  12              		.eabi_attribute 18, 4
  13              		.file	"main.c"
  14              		.text
  15              	.Ltext0:
  16              		.cfi_sections	.debug_frame
  17              		.section	.text.set_timer,"ax",%progbits
  18              		.align	1
  19              		.global	set_timer
  20              		.syntax unified
  21              		.thumb
  22              		.thumb_func
  24              	set_timer:
  25              	.LVL0:
  26              	.LFB68:
  27              		.file 1 "Core/Src/main.c"
   1:Core/Src/main.c **** /* USER CODE BEGIN Header */
   2:Core/Src/main.c **** /**
   3:Core/Src/main.c ****  ******************************************************************************
   4:Core/Src/main.c ****  * @file           : main.c
   5:Core/Src/main.c ****  * @brief          : Main program body
   6:Core/Src/main.c ****  ******************************************************************************
   7:Core/Src/main.c ****  * @attention
   8:Core/Src/main.c ****  *
   9:Core/Src/main.c ****  * Copyright (c) 2023 STMicroelectronics.
  10:Core/Src/main.c ****  * All rights reserved.
  11:Core/Src/main.c ****  *
  12:Core/Src/main.c ****  * This software is licensed under terms that can be found in the LICENSE file
  13:Core/Src/main.c ****  * in the root directory of this software component.
  14:Core/Src/main.c ****  * If no LICENSE file comes with this software, it is provided AS-IS.
  15:Core/Src/main.c ****  *    // angle = 1.8*count-45;
  16:Core/Src/main.c ****  ******************************************************************************
  17:Core/Src/main.c ****  */
  18:Core/Src/main.c **** /* USER CODE END Header */
  19:Core/Src/main.c **** /* Includes ------------------------------------------------------------------*/
  20:Core/Src/main.c **** #include "main.h"
  21:Core/Src/main.c **** #include "spi.h"
  22:Core/Src/main.c **** #include "tim.h"
  23:Core/Src/main.c **** #include "usart.h"
  24:Core/Src/main.c **** #include "gpio.h"
  25:Core/Src/main.c **** 
  26:Core/Src/main.c **** /* Private includes ----------------------------------------------------------*/
  27:Core/Src/main.c **** /* USER CODE BEGIN Includes */
  28:Core/Src/main.c **** #include "stdio.h"
  29:Core/Src/main.c **** #include "stdlib.h"
  30:Core/Src/main.c **** #include "math.h"
  31:Core/Src/main.c **** #include "string.h"
ARM GAS  C:\Users\Admin\AppData\Local\Temp\ccgbUHXa.s 			page 2


  32:Core/Src/main.c **** #include "st7735.h"
  33:Core/Src/main.c **** #include "dht22.h"
  34:Core/Src/main.c **** // #include "fonts.h"
  35:Core/Src/main.c **** 
  36:Core/Src/main.c **** /* USER CODE END Includes */
  37:Core/Src/main.c **** 
  38:Core/Src/main.c **** /* Private typedef -----------------------------------------------------------*/
  39:Core/Src/main.c **** /* USER CODE BEGIN PTD */
  40:Core/Src/main.c **** 
  41:Core/Src/main.c **** /* USER CODE END PTD */
  42:Core/Src/main.c **** 
  43:Core/Src/main.c **** /* Private define ------------------------------------------------------------*/
  44:Core/Src/main.c **** /* USER CODE BEGIN PD */
  45:Core/Src/main.c **** /* USER CODE END PD */
  46:Core/Src/main.c **** 
  47:Core/Src/main.c **** /* Private macro -------------------------------------------------------------*/
  48:Core/Src/main.c **** /* USER CODE BEGIN PM */
  49:Core/Src/main.c **** 
  50:Core/Src/main.c **** /* USER CODE END PM */
  51:Core/Src/main.c **** 
  52:Core/Src/main.c **** /* Private variables ---------------------------------------------------------*/
  53:Core/Src/main.c **** 
  54:Core/Src/main.c **** /* USER CODE BEGIN PV */
  55:Core/Src/main.c **** int count = 25;
  56:Core/Src/main.c **** char rota[20] = {0};
  57:Core/Src/main.c **** char threshold[20] = {0};
  58:Core/Src/main.c **** char label_thres[10] = {0};
  59:Core/Src/main.c **** char str_thres[5] = {0};
  60:Core/Src/main.c **** int angle;
  61:Core/Src/main.c **** char buf_temp[20] = {0};
  62:Core/Src/main.c **** char buf_humi[20] = {0};
  63:Core/Src/main.c **** enum
  64:Core/Src/main.c **** {
  65:Core/Src/main.c ****   Task_sensor,
  66:Core/Src/main.c ****   Task_control,
  67:Core/Src/main.c ****   Task_display,
  68:Core/Src/main.c ****   Mode_auto,
  69:Core/Src/main.c ****   Mode_manual
  70:Core/Src/main.c **** };
  71:Core/Src/main.c **** 
  72:Core/Src/main.c **** volatile int Type_task = Task_sensor;
  73:Core/Src/main.c **** volatile int Mode = Mode_auto;
  74:Core/Src/main.c **** 
  75:Core/Src/main.c **** uint8_t Rx_data;
  76:Core/Src/main.c **** char buffer_data[50] = {0};
  77:Core/Src/main.c **** volatile int Rx_index = 0;
  78:Core/Src/main.c **** volatile bool Rx_complete = false;
  79:Core/Src/main.c **** 
  80:Core/Src/main.c **** volatile bool perform_s = false;
  81:Core/Src/main.c **** volatile bool perform_c = false;
  82:Core/Src/main.c **** volatile bool perform_d = false;
  83:Core/Src/main.c **** 
  84:Core/Src/main.c **** int PC_rota;
  85:Core/Src/main.c **** float PC_threshold = 30;
  86:Core/Src/main.c **** 
  87:Core/Src/main.c **** int temp;
  88:Core/Src/main.c **** int humi;
ARM GAS  C:\Users\Admin\AppData\Local\Temp\ccgbUHXa.s 			page 3


  89:Core/Src/main.c **** /* USER CODE END PV */
  90:Core/Src/main.c **** 
  91:Core/Src/main.c **** /* Private function prototypes -----------------------------------------------*/
  92:Core/Src/main.c **** void SystemClock_Config(void);
  93:Core/Src/main.c **** /* USER CODE BEGIN PFP */
  94:Core/Src/main.c **** 
  95:Core/Src/main.c **** /* USER CODE END PFP */
  96:Core/Src/main.c **** 
  97:Core/Src/main.c **** /* Private user code ---------------------------------------------------------*/
  98:Core/Src/main.c **** /* USER CODE BEGIN 0 */
  99:Core/Src/main.c **** // void debug()
 100:Core/Src/main.c **** void set_timer(long time)
 101:Core/Src/main.c **** {
  28              		.loc 1 101 1 view -0
  29              		.cfi_startproc
  30              		@ args = 0, pretend = 0, frame = 0
  31              		@ frame_needed = 0, uses_anonymous_args = 0
  32              		@ link register save eliminated.
 102:Core/Src/main.c ****   TIM3->CNT = 60000 - time * 10;
  33              		.loc 1 102 3 view .LVU1
  34              		.loc 1 102 21 is_stmt 0 view .LVU2
  35 0000 6FF00902 		mvn	r2, #9
  36 0004 4EF66023 		movw	r3, #60000
  37 0008 02FB0033 		mla	r3, r2, r0, r3
  38              		.loc 1 102 13 view .LVU3
  39 000c 014A     		ldr	r2, .L2
  40 000e 5362     		str	r3, [r2, #36]
 103:Core/Src/main.c **** }
  41              		.loc 1 103 1 view .LVU4
  42 0010 7047     		bx	lr
  43              	.L3:
  44 0012 00BF     		.align	2
  45              	.L2:
  46 0014 00040040 		.word	1073742848
  47              		.cfi_endproc
  48              	.LFE68:
  50              		.section	.text.log_data,"ax",%progbits
  51              		.align	1
  52              		.global	log_data
  53              		.syntax unified
  54              		.thumb
  55              		.thumb_func
  57              	log_data:
  58              	.LVL1:
  59              	.LFB69:
 104:Core/Src/main.c **** void log_data(char *buffer)
 105:Core/Src/main.c **** {
  60              		.loc 1 105 1 is_stmt 1 view -0
  61              		.cfi_startproc
  62              		@ args = 0, pretend = 0, frame = 0
  63              		@ frame_needed = 0, uses_anonymous_args = 0
  64              		.loc 1 105 1 is_stmt 0 view .LVU6
  65 0000 10B5     		push	{r4, lr}
  66              	.LCFI0:
  67              		.cfi_def_cfa_offset 8
  68              		.cfi_offset 4, -8
  69              		.cfi_offset 14, -4
ARM GAS  C:\Users\Admin\AppData\Local\Temp\ccgbUHXa.s 			page 4


  70 0002 0446     		mov	r4, r0
 106:Core/Src/main.c ****   HAL_UART_Transmit(&huart3, (uint8_t *)buffer, strlen(buffer), 1000);
  71              		.loc 1 106 3 is_stmt 1 view .LVU7
  72              		.loc 1 106 49 is_stmt 0 view .LVU8
  73 0004 FFF7FEFF 		bl	strlen
  74              	.LVL2:
  75              		.loc 1 106 3 view .LVU9
  76 0008 4FF47A73 		mov	r3, #1000
  77 000c 82B2     		uxth	r2, r0
  78 000e 2146     		mov	r1, r4
  79 0010 0148     		ldr	r0, .L6
  80 0012 FFF7FEFF 		bl	HAL_UART_Transmit
  81              	.LVL3:
 107:Core/Src/main.c **** }
  82              		.loc 1 107 1 view .LVU10
  83 0016 10BD     		pop	{r4, pc}
  84              	.LVL4:
  85              	.L7:
  86              		.loc 1 107 1 view .LVU11
  87              		.align	2
  88              	.L6:
  89 0018 00000000 		.word	huart3
  90              		.cfi_endproc
  91              	.LFE69:
  93              		.section	.text.HAL_TIM_PeriodElapsedCallback,"ax",%progbits
  94              		.align	1
  95              		.global	HAL_TIM_PeriodElapsedCallback
  96              		.syntax unified
  97              		.thumb
  98              		.thumb_func
 100              	HAL_TIM_PeriodElapsedCallback:
 101              	.LVL5:
 102              	.LFB70:
 108:Core/Src/main.c **** 
 109:Core/Src/main.c **** void HAL_TIM_PeriodElapsedCallback(TIM_HandleTypeDef *htim)
 110:Core/Src/main.c **** {
 103              		.loc 1 110 1 is_stmt 1 view -0
 104              		.cfi_startproc
 105              		@ args = 0, pretend = 0, frame = 0
 106              		@ frame_needed = 0, uses_anonymous_args = 0
 107              		.loc 1 110 1 is_stmt 0 view .LVU13
 108 0000 08B5     		push	{r3, lr}
 109              	.LCFI1:
 110              		.cfi_def_cfa_offset 8
 111              		.cfi_offset 3, -8
 112              		.cfi_offset 14, -4
 111:Core/Src/main.c ****   if (htim == &htim3)
 113              		.loc 1 111 3 is_stmt 1 view .LVU14
 114              		.loc 1 111 6 is_stmt 0 view .LVU15
 115 0002 174B     		ldr	r3, .L16
 116 0004 8342     		cmp	r3, r0
 117 0006 00D0     		beq	.L13
 118              	.LVL6:
 119              	.L8:
 112:Core/Src/main.c ****   {
 113:Core/Src/main.c ****     if (Type_task == Task_sensor)
 114:Core/Src/main.c ****     {
ARM GAS  C:\Users\Admin\AppData\Local\Temp\ccgbUHXa.s 			page 5


 115:Core/Src/main.c ****       perform_s = false;
 116:Core/Src/main.c ****       Type_task = Task_control;
 117:Core/Src/main.c ****       set_timer(500);
 118:Core/Src/main.c ****       return;
 119:Core/Src/main.c ****     }
 120:Core/Src/main.c ****     if (Type_task == Task_control)
 121:Core/Src/main.c ****     {
 122:Core/Src/main.c ****       perform_c = false;
 123:Core/Src/main.c ****       Type_task = Task_display;
 124:Core/Src/main.c ****       set_timer(500);
 125:Core/Src/main.c ****       return;
 126:Core/Src/main.c ****     }
 127:Core/Src/main.c ****     if (Type_task == Task_display)
 128:Core/Src/main.c ****     {
 129:Core/Src/main.c ****       perform_d = false;
 130:Core/Src/main.c ****       Type_task = Task_sensor;
 131:Core/Src/main.c ****       set_timer(1000);
 132:Core/Src/main.c ****       return;
 133:Core/Src/main.c ****     }
 134:Core/Src/main.c ****   }
 135:Core/Src/main.c **** }
 120              		.loc 1 135 1 view .LVU16
 121 0008 08BD     		pop	{r3, pc}
 122              	.LVL7:
 123              	.L13:
 113:Core/Src/main.c ****     {
 124              		.loc 1 113 5 is_stmt 1 view .LVU17
 113:Core/Src/main.c ****     {
 125              		.loc 1 113 19 is_stmt 0 view .LVU18
 126 000a 164B     		ldr	r3, .L16+4
 127 000c 1B68     		ldr	r3, [r3]
 113:Core/Src/main.c ****     {
 128              		.loc 1 113 8 view .LVU19
 129 000e 8BB1     		cbz	r3, .L14
 120:Core/Src/main.c ****     {
 130              		.loc 1 120 5 is_stmt 1 view .LVU20
 120:Core/Src/main.c ****     {
 131              		.loc 1 120 19 is_stmt 0 view .LVU21
 132 0010 144B     		ldr	r3, .L16+4
 133 0012 1B68     		ldr	r3, [r3]
 120:Core/Src/main.c ****     {
 134              		.loc 1 120 8 view .LVU22
 135 0014 012B     		cmp	r3, #1
 136 0016 18D0     		beq	.L15
 127:Core/Src/main.c ****     {
 137              		.loc 1 127 5 is_stmt 1 view .LVU23
 127:Core/Src/main.c ****     {
 138              		.loc 1 127 19 is_stmt 0 view .LVU24
 139 0018 124B     		ldr	r3, .L16+4
 140 001a 1B68     		ldr	r3, [r3]
 127:Core/Src/main.c ****     {
 141              		.loc 1 127 8 view .LVU25
 142 001c 022B     		cmp	r3, #2
 143 001e F3D1     		bne	.L8
 129:Core/Src/main.c ****       Type_task = Task_sensor;
 144              		.loc 1 129 7 is_stmt 1 view .LVU26
 129:Core/Src/main.c ****       Type_task = Task_sensor;
ARM GAS  C:\Users\Admin\AppData\Local\Temp\ccgbUHXa.s 			page 6


 145              		.loc 1 129 17 is_stmt 0 view .LVU27
 146 0020 0023     		movs	r3, #0
 147 0022 114A     		ldr	r2, .L16+8
 148 0024 1370     		strb	r3, [r2]
 130:Core/Src/main.c ****       set_timer(1000);
 149              		.loc 1 130 7 is_stmt 1 view .LVU28
 130:Core/Src/main.c ****       set_timer(1000);
 150              		.loc 1 130 17 is_stmt 0 view .LVU29
 151 0026 0F4A     		ldr	r2, .L16+4
 152 0028 1360     		str	r3, [r2]
 131:Core/Src/main.c ****       return;
 153              		.loc 1 131 7 is_stmt 1 view .LVU30
 154 002a 4FF47A70 		mov	r0, #1000
 155              	.LVL8:
 131:Core/Src/main.c ****       return;
 156              		.loc 1 131 7 is_stmt 0 view .LVU31
 157 002e FFF7FEFF 		bl	set_timer
 158              	.LVL9:
 132:Core/Src/main.c ****     }
 159              		.loc 1 132 7 is_stmt 1 view .LVU32
 160 0032 E9E7     		b	.L8
 161              	.LVL10:
 162              	.L14:
 115:Core/Src/main.c ****       Type_task = Task_control;
 163              		.loc 1 115 7 view .LVU33
 115:Core/Src/main.c ****       Type_task = Task_control;
 164              		.loc 1 115 17 is_stmt 0 view .LVU34
 165 0034 0D4B     		ldr	r3, .L16+12
 166 0036 0022     		movs	r2, #0
 167 0038 1A70     		strb	r2, [r3]
 116:Core/Src/main.c ****       set_timer(500);
 168              		.loc 1 116 7 is_stmt 1 view .LVU35
 116:Core/Src/main.c ****       set_timer(500);
 169              		.loc 1 116 17 is_stmt 0 view .LVU36
 170 003a 0A4B     		ldr	r3, .L16+4
 171 003c 0122     		movs	r2, #1
 172 003e 1A60     		str	r2, [r3]
 117:Core/Src/main.c ****       return;
 173              		.loc 1 117 7 is_stmt 1 view .LVU37
 174 0040 4FF4FA70 		mov	r0, #500
 175              	.LVL11:
 117:Core/Src/main.c ****       return;
 176              		.loc 1 117 7 is_stmt 0 view .LVU38
 177 0044 FFF7FEFF 		bl	set_timer
 178              	.LVL12:
 118:Core/Src/main.c ****     }
 179              		.loc 1 118 7 is_stmt 1 view .LVU39
 180 0048 DEE7     		b	.L8
 181              	.LVL13:
 182              	.L15:
 122:Core/Src/main.c ****       Type_task = Task_display;
 183              		.loc 1 122 7 view .LVU40
 122:Core/Src/main.c ****       Type_task = Task_display;
 184              		.loc 1 122 17 is_stmt 0 view .LVU41
 185 004a 094B     		ldr	r3, .L16+16
 186 004c 0022     		movs	r2, #0
 187 004e 1A70     		strb	r2, [r3]
ARM GAS  C:\Users\Admin\AppData\Local\Temp\ccgbUHXa.s 			page 7


 123:Core/Src/main.c ****       set_timer(500);
 188              		.loc 1 123 7 is_stmt 1 view .LVU42
 123:Core/Src/main.c ****       set_timer(500);
 189              		.loc 1 123 17 is_stmt 0 view .LVU43
 190 0050 044B     		ldr	r3, .L16+4
 191 0052 0222     		movs	r2, #2
 192 0054 1A60     		str	r2, [r3]
 124:Core/Src/main.c ****       return;
 193              		.loc 1 124 7 is_stmt 1 view .LVU44
 194 0056 4FF4FA70 		mov	r0, #500
 195              	.LVL14:
 124:Core/Src/main.c ****       return;
 196              		.loc 1 124 7 is_stmt 0 view .LVU45
 197 005a FFF7FEFF 		bl	set_timer
 198              	.LVL15:
 125:Core/Src/main.c ****     }
 199              		.loc 1 125 7 is_stmt 1 view .LVU46
 200 005e D3E7     		b	.L8
 201              	.L17:
 202              		.align	2
 203              	.L16:
 204 0060 00000000 		.word	htim3
 205 0064 00000000 		.word	.LANCHOR0
 206 0068 00000000 		.word	.LANCHOR3
 207 006c 00000000 		.word	.LANCHOR1
 208 0070 00000000 		.word	.LANCHOR2
 209              		.cfi_endproc
 210              	.LFE70:
 212              		.section	.rodata.HAL_UART_RxCpltCallback.str1.4,"aMS",%progbits,1
 213              		.align	2
 214              	.LC0:
 215 0000 6D616E75 		.ascii	"manual\000"
 215      616C00
 216 0007 00       		.align	2
 217              	.LC1:
 218 0008 6175746F 		.ascii	"auto\000"
 218      00
 219              		.section	.text.HAL_UART_RxCpltCallback,"ax",%progbits
 220              		.align	1
 221              		.global	HAL_UART_RxCpltCallback
 222              		.syntax unified
 223              		.thumb
 224              		.thumb_func
 226              	HAL_UART_RxCpltCallback:
 227              	.LVL16:
 228              	.LFB71:
 136:Core/Src/main.c **** 
 137:Core/Src/main.c **** void HAL_UART_RxCpltCallback(UART_HandleTypeDef *huart)
 138:Core/Src/main.c **** {
 229              		.loc 1 138 1 view -0
 230              		.cfi_startproc
 231              		@ args = 0, pretend = 0, frame = 0
 232              		@ frame_needed = 0, uses_anonymous_args = 0
 233              		.loc 1 138 1 is_stmt 0 view .LVU48
 234 0000 08B5     		push	{r3, lr}
 235              	.LCFI2:
 236              		.cfi_def_cfa_offset 8
ARM GAS  C:\Users\Admin\AppData\Local\Temp\ccgbUHXa.s 			page 8


 237              		.cfi_offset 3, -8
 238              		.cfi_offset 14, -4
 139:Core/Src/main.c ****   if (huart == &huart3)
 239              		.loc 1 139 3 is_stmt 1 view .LVU49
 240              		.loc 1 139 6 is_stmt 0 view .LVU50
 241 0002 1A4B     		ldr	r3, .L26
 242 0004 8342     		cmp	r3, r0
 243 0006 00D0     		beq	.L24
 244              	.LVL17:
 245              	.L18:
 140:Core/Src/main.c ****   {
 141:Core/Src/main.c ****     HAL_TIM_Base_Stop(&htim3);
 142:Core/Src/main.c ****     if (Rx_data == 13)
 143:Core/Src/main.c ****     {
 144:Core/Src/main.c ****       buffer_data[Rx_index] = '\0';
 145:Core/Src/main.c ****       Rx_index = 0;
 146:Core/Src/main.c ****       Rx_complete = true;
 147:Core/Src/main.c ****       if (strcmp(buffer_data, "manual") == 0)
 148:Core/Src/main.c ****       {
 149:Core/Src/main.c ****         Mode = Mode_manual;
 150:Core/Src/main.c ****       }
 151:Core/Src/main.c ****       if (strcmp(buffer_data, "auto") == 0)
 152:Core/Src/main.c ****       {
 153:Core/Src/main.c ****         Mode = Mode_auto;
 154:Core/Src/main.c ****       }
 155:Core/Src/main.c ****     }
 156:Core/Src/main.c ****     else
 157:Core/Src/main.c ****     {
 158:Core/Src/main.c ****       buffer_data[Rx_index] = (char)Rx_data;
 159:Core/Src/main.c ****       Rx_index++;
 160:Core/Src/main.c ****       // log_data((char*)Rx_data);
 161:Core/Src/main.c ****     }
 162:Core/Src/main.c ****     HAL_UART_Receive_IT(&huart3, &Rx_data, 1);
 163:Core/Src/main.c ****     HAL_TIM_Base_Start(&htim3);
 164:Core/Src/main.c ****   }
 165:Core/Src/main.c **** }
 246              		.loc 1 165 1 view .LVU51
 247 0008 08BD     		pop	{r3, pc}
 248              	.LVL18:
 249              	.L24:
 141:Core/Src/main.c ****     if (Rx_data == 13)
 250              		.loc 1 141 5 is_stmt 1 view .LVU52
 251 000a 1948     		ldr	r0, .L26+4
 252              	.LVL19:
 141:Core/Src/main.c ****     if (Rx_data == 13)
 253              		.loc 1 141 5 is_stmt 0 view .LVU53
 254 000c FFF7FEFF 		bl	HAL_TIM_Base_Stop
 255              	.LVL20:
 142:Core/Src/main.c ****     {
 256              		.loc 1 142 5 is_stmt 1 view .LVU54
 142:Core/Src/main.c ****     {
 257              		.loc 1 142 17 is_stmt 0 view .LVU55
 258 0010 184B     		ldr	r3, .L26+8
 259 0012 1B78     		ldrb	r3, [r3]	@ zero_extendqisi2
 142:Core/Src/main.c ****     {
 260              		.loc 1 142 8 view .LVU56
 261 0014 0D2B     		cmp	r3, #13
ARM GAS  C:\Users\Admin\AppData\Local\Temp\ccgbUHXa.s 			page 9


 262 0016 0FD0     		beq	.L25
 158:Core/Src/main.c ****       Rx_index++;
 263              		.loc 1 158 7 is_stmt 1 view .LVU57
 158:Core/Src/main.c ****       Rx_index++;
 264              		.loc 1 158 18 is_stmt 0 view .LVU58
 265 0018 174A     		ldr	r2, .L26+12
 266 001a 1168     		ldr	r1, [r2]
 158:Core/Src/main.c ****       Rx_index++;
 267              		.loc 1 158 29 view .LVU59
 268 001c 1748     		ldr	r0, .L26+16
 269 001e 4354     		strb	r3, [r0, r1]
 159:Core/Src/main.c ****       // log_data((char*)Rx_data);
 270              		.loc 1 159 7 is_stmt 1 view .LVU60
 159:Core/Src/main.c ****       // log_data((char*)Rx_data);
 271              		.loc 1 159 15 is_stmt 0 view .LVU61
 272 0020 1368     		ldr	r3, [r2]
 273 0022 0133     		adds	r3, r3, #1
 274 0024 1360     		str	r3, [r2]
 275              	.L22:
 162:Core/Src/main.c ****     HAL_TIM_Base_Start(&htim3);
 276              		.loc 1 162 5 is_stmt 1 view .LVU62
 277 0026 0122     		movs	r2, #1
 278 0028 1249     		ldr	r1, .L26+8
 279 002a 1048     		ldr	r0, .L26
 280 002c FFF7FEFF 		bl	HAL_UART_Receive_IT
 281              	.LVL21:
 163:Core/Src/main.c ****   }
 282              		.loc 1 163 5 view .LVU63
 283 0030 0F48     		ldr	r0, .L26+4
 284 0032 FFF7FEFF 		bl	HAL_TIM_Base_Start
 285              	.LVL22:
 286              		.loc 1 165 1 is_stmt 0 view .LVU64
 287 0036 E7E7     		b	.L18
 288              	.L25:
 144:Core/Src/main.c ****       Rx_index = 0;
 289              		.loc 1 144 7 is_stmt 1 view .LVU65
 144:Core/Src/main.c ****       Rx_index = 0;
 290              		.loc 1 144 18 is_stmt 0 view .LVU66
 291 0038 0F4B     		ldr	r3, .L26+12
 292 003a 1968     		ldr	r1, [r3]
 144:Core/Src/main.c ****       Rx_index = 0;
 293              		.loc 1 144 29 view .LVU67
 294 003c 0F48     		ldr	r0, .L26+16
 295 003e 0022     		movs	r2, #0
 296 0040 4254     		strb	r2, [r0, r1]
 145:Core/Src/main.c ****       Rx_complete = true;
 297              		.loc 1 145 7 is_stmt 1 view .LVU68
 145:Core/Src/main.c ****       Rx_complete = true;
 298              		.loc 1 145 16 is_stmt 0 view .LVU69
 299 0042 1A60     		str	r2, [r3]
 146:Core/Src/main.c ****       if (strcmp(buffer_data, "manual") == 0)
 300              		.loc 1 146 7 is_stmt 1 view .LVU70
 146:Core/Src/main.c ****       if (strcmp(buffer_data, "manual") == 0)
 301              		.loc 1 146 19 is_stmt 0 view .LVU71
 302 0044 0E4B     		ldr	r3, .L26+20
 303 0046 0122     		movs	r2, #1
 304 0048 1A70     		strb	r2, [r3]
ARM GAS  C:\Users\Admin\AppData\Local\Temp\ccgbUHXa.s 			page 10


 147:Core/Src/main.c ****       {
 305              		.loc 1 147 7 is_stmt 1 view .LVU72
 147:Core/Src/main.c ****       {
 306              		.loc 1 147 11 is_stmt 0 view .LVU73
 307 004a 0E49     		ldr	r1, .L26+24
 308 004c FFF7FEFF 		bl	strcmp
 309              	.LVL23:
 147:Core/Src/main.c ****       {
 310              		.loc 1 147 10 view .LVU74
 311 0050 10B9     		cbnz	r0, .L21
 149:Core/Src/main.c ****       }
 312              		.loc 1 149 9 is_stmt 1 view .LVU75
 149:Core/Src/main.c ****       }
 313              		.loc 1 149 14 is_stmt 0 view .LVU76
 314 0052 0D4B     		ldr	r3, .L26+28
 315 0054 0422     		movs	r2, #4
 316 0056 1A60     		str	r2, [r3]
 317              	.L21:
 151:Core/Src/main.c ****       {
 318              		.loc 1 151 7 is_stmt 1 view .LVU77
 151:Core/Src/main.c ****       {
 319              		.loc 1 151 11 is_stmt 0 view .LVU78
 320 0058 0C49     		ldr	r1, .L26+32
 321 005a 0848     		ldr	r0, .L26+16
 322 005c FFF7FEFF 		bl	strcmp
 323              	.LVL24:
 151:Core/Src/main.c ****       {
 324              		.loc 1 151 10 view .LVU79
 325 0060 0028     		cmp	r0, #0
 326 0062 E0D1     		bne	.L22
 153:Core/Src/main.c ****       }
 327              		.loc 1 153 9 is_stmt 1 view .LVU80
 153:Core/Src/main.c ****       }
 328              		.loc 1 153 14 is_stmt 0 view .LVU81
 329 0064 084B     		ldr	r3, .L26+28
 330 0066 0322     		movs	r2, #3
 331 0068 1A60     		str	r2, [r3]
 332 006a DCE7     		b	.L22
 333              	.L27:
 334              		.align	2
 335              	.L26:
 336 006c 00000000 		.word	huart3
 337 0070 00000000 		.word	htim3
 338 0074 00000000 		.word	.LANCHOR4
 339 0078 00000000 		.word	.LANCHOR5
 340 007c 00000000 		.word	.LANCHOR6
 341 0080 00000000 		.word	.LANCHOR7
 342 0084 00000000 		.word	.LC0
 343 0088 00000000 		.word	.LANCHOR8
 344 008c 08000000 		.word	.LC1
 345              		.cfi_endproc
 346              	.LFE71:
 348              		.section	.text.Error_Handler,"ax",%progbits
 349              		.align	1
 350              		.global	Error_Handler
 351              		.syntax unified
 352              		.thumb
ARM GAS  C:\Users\Admin\AppData\Local\Temp\ccgbUHXa.s 			page 11


 353              		.thumb_func
 355              	Error_Handler:
 356              	.LFB74:
 166:Core/Src/main.c **** uint8_t RHI, RHD, TCI, TCD, SUM;
 167:Core/Src/main.c **** float tCelsius = 0;
 168:Core/Src/main.c **** float tFahrenheit = 0;
 169:Core/Src/main.c **** float RH = 0;
 170:Core/Src/main.c **** 
 171:Core/Src/main.c **** char thres_tring[]="Thres: 30";
 172:Core/Src/main.c **** 
 173:Core/Src/main.c **** /* USER CODE END 0 */
 174:Core/Src/main.c **** 
 175:Core/Src/main.c **** /**
 176:Core/Src/main.c ****  * @brief  The application entry point.
 177:Core/Src/main.c ****  * @retval int
 178:Core/Src/main.c ****  */
 179:Core/Src/main.c **** int main(void)
 180:Core/Src/main.c **** {
 181:Core/Src/main.c ****   /* USER CODE BEGIN 1 */
 182:Core/Src/main.c **** 
 183:Core/Src/main.c ****   /* USER CODE END 1 */
 184:Core/Src/main.c **** 
 185:Core/Src/main.c ****   /* MCU Configuration--------------------------------------------------------*/
 186:Core/Src/main.c **** 
 187:Core/Src/main.c ****   /* Reset of all peripherals, Initializes the Flash interface and the Systick. */
 188:Core/Src/main.c ****   HAL_Init();
 189:Core/Src/main.c **** 
 190:Core/Src/main.c ****   /* USER CODE BEGIN Init */
 191:Core/Src/main.c **** 
 192:Core/Src/main.c ****   /* USER CODE END Init */
 193:Core/Src/main.c **** 
 194:Core/Src/main.c ****   /* Configure the system clock */
 195:Core/Src/main.c ****   SystemClock_Config();
 196:Core/Src/main.c **** 
 197:Core/Src/main.c ****   /* USER CODE BEGIN SysInit */
 198:Core/Src/main.c **** 
 199:Core/Src/main.c ****   /* USER CODE END SysInit */
 200:Core/Src/main.c **** 
 201:Core/Src/main.c ****   /* Initialize all configured peripherals */
 202:Core/Src/main.c ****   MX_GPIO_Init();
 203:Core/Src/main.c ****   MX_SPI2_Init();
 204:Core/Src/main.c ****   MX_TIM1_Init();
 205:Core/Src/main.c ****   MX_USART3_UART_Init();
 206:Core/Src/main.c ****   MX_TIM2_Init();
 207:Core/Src/main.c ****   MX_TIM3_Init();
 208:Core/Src/main.c ****   /* USER CODE BEGIN 2 */
 209:Core/Src/main.c ****   // TImer 2 ->>>> generate PWM to control sg90
 210:Core/Src/main.c ****   HAL_TIM_PWM_Start(&htim2, TIM_CHANNEL_1);
 211:Core/Src/main.c ****   // init LCD TFT
 212:Core/Src/main.c ****   ST7735_Init();
 213:Core/Src/main.c ****   // Timer 1 to gen delay for DHT22
 214:Core/Src/main.c ****   HAL_TIM_Base_Start(&htim1);
 215:Core/Src/main.c ****   // set screen
 216:Core/Src/main.c ****   ST7735_FillScreen(ST7735_BLACK);
 217:Core/Src/main.c ****   ST7735_WriteString(25, 0, "Team 17", Font_11x18, ST7735_RED, ST7735_BLACK);
 218:Core/Src/main.c ****   ST7735_WriteString(0, 30, "Temp: ", Font_11x18, ST7735_RED, ST7735_BLACK);
 219:Core/Src/main.c ****   ST7735_WriteString(0, 3 * 10 * 2, "Humi: ", Font_11x18, ST7735_RED, ST7735_BLACK);
ARM GAS  C:\Users\Admin\AppData\Local\Temp\ccgbUHXa.s 			page 12


 220:Core/Src/main.c ****   ST7735_WriteString(0, 3 * 10 * 3, "Rota: ", Font_11x18, ST7735_GREEN, ST7735_BLACK);
 221:Core/Src/main.c ****   //sprintf(thres_tring,"Thresh: %.1f",PC_threshold);
 222:Core/Src/main.c ****   //strcat(thres_tring,"30");
 223:Core/Src/main.c ****   ST7735_WriteString(0, 3 * 10 * 4, thres_tring, Font_11x18, ST7735_GREEN, ST7735_BLACK);
 224:Core/Src/main.c **** 
 225:Core/Src/main.c ****   // ST7735_WriteString(35, 145, "Warnning", Font_7x10, ST7735_WHITE, ST7735_BLACK);
 226:Core/Src/main.c ****   HAL_Delay(1000);
 227:Core/Src/main.c **** 
 228:Core/Src/main.c ****   set_timer(1000);
 229:Core/Src/main.c ****   HAL_TIM_Base_Start_IT(&htim3);
 230:Core/Src/main.c **** 
 231:Core/Src/main.c ****   // interrupt UART
 232:Core/Src/main.c ****   HAL_UART_Receive_IT(&huart3, &Rx_data, 1);
 233:Core/Src/main.c ****   /* USER CODE END 2 */
 234:Core/Src/main.c **** 
 235:Core/Src/main.c ****   /* Infinite loop */
 236:Core/Src/main.c ****   /* USER CODE BEGIN WHILE */
 237:Core/Src/main.c ****   while (1)
 238:Core/Src/main.c ****   {
 239:Core/Src/main.c ****     /* USER CODE END WHILE */
 240:Core/Src/main.c **** 
 241:Core/Src/main.c ****     /* USER CODE BEGIN 3 */
 242:Core/Src/main.c ****     switch (Mode)
 243:Core/Src/main.c ****     {
 244:Core/Src/main.c ****     case Mode_auto:
 245:Core/Src/main.c ****       if (Type_task == Task_sensor)
 246:Core/Src/main.c ****       {
 247:Core/Src/main.c ****         if (!perform_s)
 248:Core/Src/main.c ****         {
 249:Core/Src/main.c ****           perform_s = true;
 250:Core/Src/main.c ****           log_data("task sensor\n");
 251:Core/Src/main.c ****           if (DHT11_Start())
 252:Core/Src/main.c ****           {
 253:Core/Src/main.c ****             RHI = DHT11_Read(); // Relative humidity integral
 254:Core/Src/main.c ****             RHD = DHT11_Read(); // Relative humidity decimal
 255:Core/Src/main.c ****             TCI = DHT11_Read(); // Celsius integral
 256:Core/Src/main.c ****             TCD = DHT11_Read(); // Celsius decimal
 257:Core/Src/main.c ****             SUM = DHT11_Read(); // Check sum
 258:Core/Src/main.c ****             if (RHI + RHD + TCI + TCD == SUM)
 259:Core/Src/main.c ****             {
 260:Core/Src/main.c ****               // Can use RHI and TCI for any purposes if whole number only needed
 261:Core/Src/main.c ****               temp = (float)TCI + (float)(TCD / 10.0);
 262:Core/Src/main.c ****               humi = (float)RHI + (float)(RHD / 10.0);
 263:Core/Src/main.c ****               // Can use tCelsius, tFahrenheit and RH for any purposes
 264:Core/Src/main.c ****             }
 265:Core/Src/main.c ****           }
 266:Core/Src/main.c ****         }
 267:Core/Src/main.c ****           // read sensor
 268:Core/Src/main.c ****         }
 269:Core/Src/main.c ****         if (Type_task == Task_control)
 270:Core/Src/main.c ****         {
 271:Core/Src/main.c ****           if (!perform_c)
 272:Core/Src/main.c ****           {
 273:Core/Src/main.c ****             perform_c = true;
 274:Core/Src/main.c ****             log_data("task control\n");
 275:Core/Src/main.c ****             // depend Temp value
 276:Core/Src/main.c ****             //>PC_threshold -> close curtain
ARM GAS  C:\Users\Admin\AppData\Local\Temp\ccgbUHXa.s 			page 13


 277:Core/Src/main.c ****             if (temp > PC_threshold)
 278:Core/Src/main.c ****             {
 279:Core/Src/main.c ****               TIM2->CCR1 = 25;
 280:Core/Src/main.c ****               // sprintf(rota, "Rota: %d  ", 0);
 281:Core/Src/main.c ****               // log_data(rota);
 282:Core/Src/main.c ****               // log_data("\n");
 283:Core/Src/main.c ****               // ST7735_WriteString(0, 3 * 10 * 3, rota, Font_11x18, ST7735_GREEN, ST7735_BLACK);
 284:Core/Src/main.c ****               // ST7735_WriteString(35, 145, "Warnning", Font_7x10, ST7735_WHITE, ST7735_BLACK);
 285:Core/Src/main.c **** 
 286:Core/Src/main.c ****             }
 287:Core/Src/main.c ****             //<PC_threshold -> close curtain
 288:Core/Src/main.c ****             else
 289:Core/Src/main.c ****             {
 290:Core/Src/main.c ****               TIM2->CCR1 = 125;
 291:Core/Src/main.c ****               // sprintf(rota, "Rota: %d  ", 180);
 292:Core/Src/main.c ****               // log_data(rota);
 293:Core/Src/main.c ****               // log_data("\n");
 294:Core/Src/main.c ****               // ST7735_WriteString(0, 3 * 10 * 3, rota, Font_11x18, ST7735_GREEN, ST7735_BLACK);
 295:Core/Src/main.c ****               // ST7735_WriteString(35, 145, "          ", Font_7x10, ST7735_WHITE, ST7735_BLACK);
 296:Core/Src/main.c ****             }
 297:Core/Src/main.c ****           }
 298:Core/Src/main.c ****         }
 299:Core/Src/main.c ****         if (Type_task == Task_display)
 300:Core/Src/main.c ****         {
 301:Core/Src/main.c ****           if (!perform_d)
 302:Core/Src/main.c ****           {
 303:Core/Src/main.c ****             perform_d = true;
 304:Core/Src/main.c ****             log_data("task display\n");
 305:Core/Src/main.c ****             sprintf(buf_temp, "Temp: %d C", temp);
 306:Core/Src/main.c ****             sprintf(buf_humi, "Humi: %d ", humi);
 307:Core/Src/main.c ****             log_data(buf_temp);
 308:Core/Src/main.c ****             log_data("\n");
 309:Core/Src/main.c ****             log_data(buf_humi);
 310:Core/Src/main.c ****             log_data("\n");
 311:Core/Src/main.c ****             if (temp > PC_threshold)
 312:Core/Src/main.c ****             {
 313:Core/Src/main.c ****               sprintf(rota, "Rota: %d  ", 0);
 314:Core/Src/main.c ****               log_data(rota);
 315:Core/Src/main.c ****               log_data("\n");
 316:Core/Src/main.c ****               ST7735_WriteString(0, 3 * 10 * 3, rota, Font_11x18, ST7735_GREEN, ST7735_BLACK);
 317:Core/Src/main.c ****               ST7735_WriteString(35, 145, "Warnning", Font_7x10, ST7735_WHITE, ST7735_BLACK);
 318:Core/Src/main.c ****             }
 319:Core/Src/main.c ****             else
 320:Core/Src/main.c ****             {
 321:Core/Src/main.c ****               sprintf(rota, "Rota: %d  ", 180);
 322:Core/Src/main.c ****               log_data(rota);
 323:Core/Src/main.c ****               log_data("\n");
 324:Core/Src/main.c ****               ST7735_WriteString(0, 3 * 10 * 3, rota, Font_11x18, ST7735_GREEN, ST7735_BLACK);
 325:Core/Src/main.c ****               ST7735_WriteString(35, 145, "          ", Font_7x10, ST7735_WHITE, ST7735_BLACK);
 326:Core/Src/main.c ****             }
 327:Core/Src/main.c ****             ST7735_WriteString(0, 30, buf_temp, Font_11x18, ST7735_RED, ST7735_BLACK);
 328:Core/Src/main.c ****             ST7735_WriteString(0, 3 * 10 * 2, strcat(buf_humi, "%"), Font_11x18, ST7735_RED, ST7735
 329:Core/Src/main.c ****           }
 330:Core/Src/main.c ****         }
 331:Core/Src/main.c ****         break;
 332:Core/Src/main.c **** 
 333:Core/Src/main.c ****       case Mode_manual:
ARM GAS  C:\Users\Admin\AppData\Local\Temp\ccgbUHXa.s 			page 14


 334:Core/Src/main.c ****         if (Rx_complete)
 335:Core/Src/main.c ****         {
 336:Core/Src/main.c ****           Rx_complete = false;
 337:Core/Src/main.c ****           if (strncmp(buffer_data, "Rota", 4) == 0)
 338:Core/Src/main.c ****           {
 339:Core/Src/main.c ****             // Parse string
 340:Core/Src/main.c ****             sscanf(buffer_data, "%*[^0-9]%d", &PC_rota);
 341:Core/Src/main.c ****             // control Servo
 342:Core/Src/main.c ****             TIM2->CCR1 = (int)((PC_rota + 45) / 1.8);
 343:Core/Src/main.c ****             sprintf(rota, "Rota: %d  ", PC_rota);
 344:Core/Src/main.c ****             log_data("\nPC control ");
 345:Core/Src/main.c ****             log_data(rota);
 346:Core/Src/main.c ****             ST7735_WriteString(0, 3 * 10 * 3, rota, Font_11x18, ST7735_GREEN, ST7735_BLACK);
 347:Core/Src/main.c ****           }
 348:Core/Src/main.c ****           if (strncmp(buffer_data, "Threshold", strlen("Threshold")) == 0)
 349:Core/Src/main.c ****           {
 350:Core/Src/main.c ****             char str_buf[] = "Thres: ";
 351:Core/Src/main.c ****             // Parse string
 352:Core/Src/main.c ****             sscanf(buffer_data, "%s%s", label_thres, str_thres);
 353:Core/Src/main.c ****             //log_data(str_thres);
 354:Core/Src/main.c ****             //log_data(label_thres);
 355:Core/Src/main.c ****             // control Servo
 356:Core/Src/main.c ****             PC_threshold = atof(str_thres);
 357:Core/Src/main.c ****             strcat(str_buf, str_thres);
 358:Core/Src/main.c ****             log_data("\nPC set Threshold: ");log_data(str_thres);
 359:Core/Src/main.c ****             //log_data(str_buf);
 360:Core/Src/main.c ****             // sprintf(threshold, "%.1f  ", PC_threshold);
 361:Core/Src/main.c ****             // // strcat()
 362:Core/Src/main.c ****             // // strcpy(threshold,str_thres);
 363:Core/Src/main.c ****             // log_data(threshold);
 364:Core/Src/main.c ****             ST7735_WriteString(0, 3 * 10 * 4, str_buf, Font_11x18, ST7735_GREEN, ST7735_BLACK);
 365:Core/Src/main.c ****           }
 366:Core/Src/main.c ****           memset(buffer_data, '\0', sizeof(buffer_data));
 367:Core/Src/main.c ****           // HAL_TIM_Base_Start_IT(&htim3);
 368:Core/Src/main.c ****         }
 369:Core/Src/main.c ****       }
 370:Core/Src/main.c ****       HAL_Delay(100);
 371:Core/Src/main.c ****       // HAL_TIM_Base_Stop(&htim3);
 372:Core/Src/main.c ****       // HAL_Delay(3000);
 373:Core/Src/main.c ****       // HAL_TIM_Base_Start_IT(&htim3);
 374:Core/Src/main.c ****       // HAL_Delay(3000);
 375:Core/Src/main.c ****       // TIM2 -> CCR1 = count;
 376:Core/Src/main.c ****       // angle = 1.8*count-45;
 377:Core/Src/main.c ****       // sprintf(rota,"Rota: %d  ",angle);
 378:Core/Src/main.c ****       // debug(rota);
 379:Core/Src/main.c ****       // ST7735_WriteString(0, 3 * 10 * 2, rota, Font_11x18, ST7735_GREEN, ST7735_BLACK);
 380:Core/Src/main.c ****       // count =count+10;
 381:Core/Src/main.c ****       // if(count>125)
 382:Core/Src/main.c ****       // {
 383:Core/Src/main.c ****       //   count=25;
 384:Core/Src/main.c ****       // }
 385:Core/Src/main.c ****       // HAL_Delay(2000);
 386:Core/Src/main.c ****       // Check fonts
 387:Core/Src/main.c ****   }
 388:Core/Src/main.c ****   /* USER CODE END 3 */
 389:Core/Src/main.c **** }
 390:Core/Src/main.c **** 
ARM GAS  C:\Users\Admin\AppData\Local\Temp\ccgbUHXa.s 			page 15


 391:Core/Src/main.c **** /**
 392:Core/Src/main.c ****  * @brief System Clock Configuration
 393:Core/Src/main.c ****  * @retval None
 394:Core/Src/main.c ****  */
 395:Core/Src/main.c **** void SystemClock_Config(void)
 396:Core/Src/main.c **** {
 397:Core/Src/main.c ****   RCC_OscInitTypeDef RCC_OscInitStruct = {0};
 398:Core/Src/main.c ****   RCC_ClkInitTypeDef RCC_ClkInitStruct = {0};
 399:Core/Src/main.c **** 
 400:Core/Src/main.c ****   /** Initializes the RCC Oscillators according to the specified parameters
 401:Core/Src/main.c ****    * in the RCC_OscInitTypeDef structure.
 402:Core/Src/main.c ****    */
 403:Core/Src/main.c ****   RCC_OscInitStruct.OscillatorType = RCC_OSCILLATORTYPE_HSE;
 404:Core/Src/main.c ****   RCC_OscInitStruct.HSEState = RCC_HSE_ON;
 405:Core/Src/main.c ****   RCC_OscInitStruct.HSEPredivValue = RCC_HSE_PREDIV_DIV1;
 406:Core/Src/main.c ****   RCC_OscInitStruct.HSIState = RCC_HSI_ON;
 407:Core/Src/main.c ****   RCC_OscInitStruct.PLL.PLLState = RCC_PLL_ON;
 408:Core/Src/main.c ****   RCC_OscInitStruct.PLL.PLLSource = RCC_PLLSOURCE_HSE;
 409:Core/Src/main.c ****   RCC_OscInitStruct.PLL.PLLMUL = RCC_PLL_MUL9;
 410:Core/Src/main.c ****   if (HAL_RCC_OscConfig(&RCC_OscInitStruct) != HAL_OK)
 411:Core/Src/main.c ****   {
 412:Core/Src/main.c ****     Error_Handler();
 413:Core/Src/main.c ****   }
 414:Core/Src/main.c **** 
 415:Core/Src/main.c ****   /** Initializes the CPU, AHB and APB buses clocks
 416:Core/Src/main.c ****    */
 417:Core/Src/main.c ****   RCC_ClkInitStruct.ClockType = RCC_CLOCKTYPE_HCLK | RCC_CLOCKTYPE_SYSCLK | RCC_CLOCKTYPE_PCLK1 | R
 418:Core/Src/main.c ****   RCC_ClkInitStruct.SYSCLKSource = RCC_SYSCLKSOURCE_PLLCLK;
 419:Core/Src/main.c ****   RCC_ClkInitStruct.AHBCLKDivider = RCC_SYSCLK_DIV1;
 420:Core/Src/main.c ****   RCC_ClkInitStruct.APB1CLKDivider = RCC_HCLK_DIV2;
 421:Core/Src/main.c ****   RCC_ClkInitStruct.APB2CLKDivider = RCC_HCLK_DIV1;
 422:Core/Src/main.c **** 
 423:Core/Src/main.c ****   if (HAL_RCC_ClockConfig(&RCC_ClkInitStruct, FLASH_LATENCY_2) != HAL_OK)
 424:Core/Src/main.c ****   {
 425:Core/Src/main.c ****     Error_Handler();
 426:Core/Src/main.c ****   }
 427:Core/Src/main.c **** }
 428:Core/Src/main.c **** 
 429:Core/Src/main.c **** /* USER CODE BEGIN 4 */
 430:Core/Src/main.c **** 
 431:Core/Src/main.c **** /* USER CODE END 4 */
 432:Core/Src/main.c **** 
 433:Core/Src/main.c **** /**
 434:Core/Src/main.c ****  * @brief  This function is executed in case of error occurrence.
 435:Core/Src/main.c ****  * @retval None
 436:Core/Src/main.c ****  */
 437:Core/Src/main.c **** void Error_Handler(void)
 438:Core/Src/main.c **** {
 357              		.loc 1 438 1 is_stmt 1 view -0
 358              		.cfi_startproc
 359              		@ Volatile: function does not return.
 360              		@ args = 0, pretend = 0, frame = 0
 361              		@ frame_needed = 0, uses_anonymous_args = 0
 362              		@ link register save eliminated.
 439:Core/Src/main.c ****   /* USER CODE BEGIN Error_Handler_Debug */
 440:Core/Src/main.c ****   /* User can add his own implementation to report the HAL error return state */
 441:Core/Src/main.c ****   __disable_irq();
ARM GAS  C:\Users\Admin\AppData\Local\Temp\ccgbUHXa.s 			page 16


 363              		.loc 1 441 3 view .LVU83
 364              	.LBB4:
 365              	.LBI4:
 366              		.file 2 "Drivers/CMSIS/Include/cmsis_gcc.h"
   1:Drivers/CMSIS/Include/cmsis_gcc.h **** /**************************************************************************//**
   2:Drivers/CMSIS/Include/cmsis_gcc.h ****  * @file     cmsis_gcc.h
   3:Drivers/CMSIS/Include/cmsis_gcc.h ****  * @brief    CMSIS compiler GCC header file
   4:Drivers/CMSIS/Include/cmsis_gcc.h ****  * @version  V5.0.4
   5:Drivers/CMSIS/Include/cmsis_gcc.h ****  * @date     09. April 2018
   6:Drivers/CMSIS/Include/cmsis_gcc.h ****  ******************************************************************************/
   7:Drivers/CMSIS/Include/cmsis_gcc.h **** /*
   8:Drivers/CMSIS/Include/cmsis_gcc.h ****  * Copyright (c) 2009-2018 Arm Limited. All rights reserved.
   9:Drivers/CMSIS/Include/cmsis_gcc.h ****  *
  10:Drivers/CMSIS/Include/cmsis_gcc.h ****  * SPDX-License-Identifier: Apache-2.0
  11:Drivers/CMSIS/Include/cmsis_gcc.h ****  *
  12:Drivers/CMSIS/Include/cmsis_gcc.h ****  * Licensed under the Apache License, Version 2.0 (the License); you may
  13:Drivers/CMSIS/Include/cmsis_gcc.h ****  * not use this file except in compliance with the License.
  14:Drivers/CMSIS/Include/cmsis_gcc.h ****  * You may obtain a copy of the License at
  15:Drivers/CMSIS/Include/cmsis_gcc.h ****  *
  16:Drivers/CMSIS/Include/cmsis_gcc.h ****  * www.apache.org/licenses/LICENSE-2.0
  17:Drivers/CMSIS/Include/cmsis_gcc.h ****  *
  18:Drivers/CMSIS/Include/cmsis_gcc.h ****  * Unless required by applicable law or agreed to in writing, software
  19:Drivers/CMSIS/Include/cmsis_gcc.h ****  * distributed under the License is distributed on an AS IS BASIS, WITHOUT
  20:Drivers/CMSIS/Include/cmsis_gcc.h ****  * WARRANTIES OR CONDITIONS OF ANY KIND, either express or implied.
  21:Drivers/CMSIS/Include/cmsis_gcc.h ****  * See the License for the specific language governing permissions and
  22:Drivers/CMSIS/Include/cmsis_gcc.h ****  * limitations under the License.
  23:Drivers/CMSIS/Include/cmsis_gcc.h ****  */
  24:Drivers/CMSIS/Include/cmsis_gcc.h **** 
  25:Drivers/CMSIS/Include/cmsis_gcc.h **** #ifndef __CMSIS_GCC_H
  26:Drivers/CMSIS/Include/cmsis_gcc.h **** #define __CMSIS_GCC_H
  27:Drivers/CMSIS/Include/cmsis_gcc.h **** 
  28:Drivers/CMSIS/Include/cmsis_gcc.h **** /* ignore some GCC warnings */
  29:Drivers/CMSIS/Include/cmsis_gcc.h **** #pragma GCC diagnostic push
  30:Drivers/CMSIS/Include/cmsis_gcc.h **** #pragma GCC diagnostic ignored "-Wsign-conversion"
  31:Drivers/CMSIS/Include/cmsis_gcc.h **** #pragma GCC diagnostic ignored "-Wconversion"
  32:Drivers/CMSIS/Include/cmsis_gcc.h **** #pragma GCC diagnostic ignored "-Wunused-parameter"
  33:Drivers/CMSIS/Include/cmsis_gcc.h **** 
  34:Drivers/CMSIS/Include/cmsis_gcc.h **** /* Fallback for __has_builtin */
  35:Drivers/CMSIS/Include/cmsis_gcc.h **** #ifndef __has_builtin
  36:Drivers/CMSIS/Include/cmsis_gcc.h ****   #define __has_builtin(x) (0)
  37:Drivers/CMSIS/Include/cmsis_gcc.h **** #endif
  38:Drivers/CMSIS/Include/cmsis_gcc.h **** 
  39:Drivers/CMSIS/Include/cmsis_gcc.h **** /* CMSIS compiler specific defines */
  40:Drivers/CMSIS/Include/cmsis_gcc.h **** #ifndef   __ASM
  41:Drivers/CMSIS/Include/cmsis_gcc.h ****   #define __ASM                                  __asm
  42:Drivers/CMSIS/Include/cmsis_gcc.h **** #endif
  43:Drivers/CMSIS/Include/cmsis_gcc.h **** #ifndef   __INLINE
  44:Drivers/CMSIS/Include/cmsis_gcc.h ****   #define __INLINE                               inline
  45:Drivers/CMSIS/Include/cmsis_gcc.h **** #endif
  46:Drivers/CMSIS/Include/cmsis_gcc.h **** #ifndef   __STATIC_INLINE
  47:Drivers/CMSIS/Include/cmsis_gcc.h ****   #define __STATIC_INLINE                        static inline
  48:Drivers/CMSIS/Include/cmsis_gcc.h **** #endif
  49:Drivers/CMSIS/Include/cmsis_gcc.h **** #ifndef   __STATIC_FORCEINLINE                 
  50:Drivers/CMSIS/Include/cmsis_gcc.h ****   #define __STATIC_FORCEINLINE                   __attribute__((always_inline)) static inline
  51:Drivers/CMSIS/Include/cmsis_gcc.h **** #endif                                           
  52:Drivers/CMSIS/Include/cmsis_gcc.h **** #ifndef   __NO_RETURN
  53:Drivers/CMSIS/Include/cmsis_gcc.h ****   #define __NO_RETURN                            __attribute__((__noreturn__))
ARM GAS  C:\Users\Admin\AppData\Local\Temp\ccgbUHXa.s 			page 17


  54:Drivers/CMSIS/Include/cmsis_gcc.h **** #endif
  55:Drivers/CMSIS/Include/cmsis_gcc.h **** #ifndef   __USED
  56:Drivers/CMSIS/Include/cmsis_gcc.h ****   #define __USED                                 __attribute__((used))
  57:Drivers/CMSIS/Include/cmsis_gcc.h **** #endif
  58:Drivers/CMSIS/Include/cmsis_gcc.h **** #ifndef   __WEAK
  59:Drivers/CMSIS/Include/cmsis_gcc.h ****   #define __WEAK                                 __attribute__((weak))
  60:Drivers/CMSIS/Include/cmsis_gcc.h **** #endif
  61:Drivers/CMSIS/Include/cmsis_gcc.h **** #ifndef   __PACKED
  62:Drivers/CMSIS/Include/cmsis_gcc.h ****   #define __PACKED                               __attribute__((packed, aligned(1)))
  63:Drivers/CMSIS/Include/cmsis_gcc.h **** #endif
  64:Drivers/CMSIS/Include/cmsis_gcc.h **** #ifndef   __PACKED_STRUCT
  65:Drivers/CMSIS/Include/cmsis_gcc.h ****   #define __PACKED_STRUCT                        struct __attribute__((packed, aligned(1)))
  66:Drivers/CMSIS/Include/cmsis_gcc.h **** #endif
  67:Drivers/CMSIS/Include/cmsis_gcc.h **** #ifndef   __PACKED_UNION
  68:Drivers/CMSIS/Include/cmsis_gcc.h ****   #define __PACKED_UNION                         union __attribute__((packed, aligned(1)))
  69:Drivers/CMSIS/Include/cmsis_gcc.h **** #endif
  70:Drivers/CMSIS/Include/cmsis_gcc.h **** #ifndef   __UNALIGNED_UINT32        /* deprecated */
  71:Drivers/CMSIS/Include/cmsis_gcc.h ****   #pragma GCC diagnostic push
  72:Drivers/CMSIS/Include/cmsis_gcc.h ****   #pragma GCC diagnostic ignored "-Wpacked"
  73:Drivers/CMSIS/Include/cmsis_gcc.h ****   #pragma GCC diagnostic ignored "-Wattributes"
  74:Drivers/CMSIS/Include/cmsis_gcc.h ****   struct __attribute__((packed)) T_UINT32 { uint32_t v; };
  75:Drivers/CMSIS/Include/cmsis_gcc.h ****   #pragma GCC diagnostic pop
  76:Drivers/CMSIS/Include/cmsis_gcc.h ****   #define __UNALIGNED_UINT32(x)                  (((struct T_UINT32 *)(x))->v)
  77:Drivers/CMSIS/Include/cmsis_gcc.h **** #endif
  78:Drivers/CMSIS/Include/cmsis_gcc.h **** #ifndef   __UNALIGNED_UINT16_WRITE
  79:Drivers/CMSIS/Include/cmsis_gcc.h ****   #pragma GCC diagnostic push
  80:Drivers/CMSIS/Include/cmsis_gcc.h ****   #pragma GCC diagnostic ignored "-Wpacked"
  81:Drivers/CMSIS/Include/cmsis_gcc.h ****   #pragma GCC diagnostic ignored "-Wattributes"
  82:Drivers/CMSIS/Include/cmsis_gcc.h ****   __PACKED_STRUCT T_UINT16_WRITE { uint16_t v; };
  83:Drivers/CMSIS/Include/cmsis_gcc.h ****   #pragma GCC diagnostic pop
  84:Drivers/CMSIS/Include/cmsis_gcc.h ****   #define __UNALIGNED_UINT16_WRITE(addr, val)    (void)((((struct T_UINT16_WRITE *)(void *)(addr))-
  85:Drivers/CMSIS/Include/cmsis_gcc.h **** #endif
  86:Drivers/CMSIS/Include/cmsis_gcc.h **** #ifndef   __UNALIGNED_UINT16_READ
  87:Drivers/CMSIS/Include/cmsis_gcc.h ****   #pragma GCC diagnostic push
  88:Drivers/CMSIS/Include/cmsis_gcc.h ****   #pragma GCC diagnostic ignored "-Wpacked"
  89:Drivers/CMSIS/Include/cmsis_gcc.h ****   #pragma GCC diagnostic ignored "-Wattributes"
  90:Drivers/CMSIS/Include/cmsis_gcc.h ****   __PACKED_STRUCT T_UINT16_READ { uint16_t v; };
  91:Drivers/CMSIS/Include/cmsis_gcc.h ****   #pragma GCC diagnostic pop
  92:Drivers/CMSIS/Include/cmsis_gcc.h ****   #define __UNALIGNED_UINT16_READ(addr)          (((const struct T_UINT16_READ *)(const void *)(add
  93:Drivers/CMSIS/Include/cmsis_gcc.h **** #endif
  94:Drivers/CMSIS/Include/cmsis_gcc.h **** #ifndef   __UNALIGNED_UINT32_WRITE
  95:Drivers/CMSIS/Include/cmsis_gcc.h ****   #pragma GCC diagnostic push
  96:Drivers/CMSIS/Include/cmsis_gcc.h ****   #pragma GCC diagnostic ignored "-Wpacked"
  97:Drivers/CMSIS/Include/cmsis_gcc.h ****   #pragma GCC diagnostic ignored "-Wattributes"
  98:Drivers/CMSIS/Include/cmsis_gcc.h ****   __PACKED_STRUCT T_UINT32_WRITE { uint32_t v; };
  99:Drivers/CMSIS/Include/cmsis_gcc.h ****   #pragma GCC diagnostic pop
 100:Drivers/CMSIS/Include/cmsis_gcc.h ****   #define __UNALIGNED_UINT32_WRITE(addr, val)    (void)((((struct T_UINT32_WRITE *)(void *)(addr))-
 101:Drivers/CMSIS/Include/cmsis_gcc.h **** #endif
 102:Drivers/CMSIS/Include/cmsis_gcc.h **** #ifndef   __UNALIGNED_UINT32_READ
 103:Drivers/CMSIS/Include/cmsis_gcc.h ****   #pragma GCC diagnostic push
 104:Drivers/CMSIS/Include/cmsis_gcc.h ****   #pragma GCC diagnostic ignored "-Wpacked"
 105:Drivers/CMSIS/Include/cmsis_gcc.h ****   #pragma GCC diagnostic ignored "-Wattributes"
 106:Drivers/CMSIS/Include/cmsis_gcc.h ****   __PACKED_STRUCT T_UINT32_READ { uint32_t v; };
 107:Drivers/CMSIS/Include/cmsis_gcc.h ****   #pragma GCC diagnostic pop
 108:Drivers/CMSIS/Include/cmsis_gcc.h ****   #define __UNALIGNED_UINT32_READ(addr)          (((const struct T_UINT32_READ *)(const void *)(add
 109:Drivers/CMSIS/Include/cmsis_gcc.h **** #endif
 110:Drivers/CMSIS/Include/cmsis_gcc.h **** #ifndef   __ALIGNED
ARM GAS  C:\Users\Admin\AppData\Local\Temp\ccgbUHXa.s 			page 18


 111:Drivers/CMSIS/Include/cmsis_gcc.h ****   #define __ALIGNED(x)                           __attribute__((aligned(x)))
 112:Drivers/CMSIS/Include/cmsis_gcc.h **** #endif
 113:Drivers/CMSIS/Include/cmsis_gcc.h **** #ifndef   __RESTRICT
 114:Drivers/CMSIS/Include/cmsis_gcc.h ****   #define __RESTRICT                             __restrict
 115:Drivers/CMSIS/Include/cmsis_gcc.h **** #endif
 116:Drivers/CMSIS/Include/cmsis_gcc.h **** 
 117:Drivers/CMSIS/Include/cmsis_gcc.h **** 
 118:Drivers/CMSIS/Include/cmsis_gcc.h **** /* ###########################  Core Function Access  ########################### */
 119:Drivers/CMSIS/Include/cmsis_gcc.h **** /** \ingroup  CMSIS_Core_FunctionInterface
 120:Drivers/CMSIS/Include/cmsis_gcc.h ****     \defgroup CMSIS_Core_RegAccFunctions CMSIS Core Register Access Functions
 121:Drivers/CMSIS/Include/cmsis_gcc.h ****   @{
 122:Drivers/CMSIS/Include/cmsis_gcc.h ****  */
 123:Drivers/CMSIS/Include/cmsis_gcc.h **** 
 124:Drivers/CMSIS/Include/cmsis_gcc.h **** /**
 125:Drivers/CMSIS/Include/cmsis_gcc.h ****   \brief   Enable IRQ Interrupts
 126:Drivers/CMSIS/Include/cmsis_gcc.h ****   \details Enables IRQ interrupts by clearing the I-bit in the CPSR.
 127:Drivers/CMSIS/Include/cmsis_gcc.h ****            Can only be executed in Privileged modes.
 128:Drivers/CMSIS/Include/cmsis_gcc.h ****  */
 129:Drivers/CMSIS/Include/cmsis_gcc.h **** __STATIC_FORCEINLINE void __enable_irq(void)
 130:Drivers/CMSIS/Include/cmsis_gcc.h **** {
 131:Drivers/CMSIS/Include/cmsis_gcc.h ****   __ASM volatile ("cpsie i" : : : "memory");
 132:Drivers/CMSIS/Include/cmsis_gcc.h **** }
 133:Drivers/CMSIS/Include/cmsis_gcc.h **** 
 134:Drivers/CMSIS/Include/cmsis_gcc.h **** 
 135:Drivers/CMSIS/Include/cmsis_gcc.h **** /**
 136:Drivers/CMSIS/Include/cmsis_gcc.h ****   \brief   Disable IRQ Interrupts
 137:Drivers/CMSIS/Include/cmsis_gcc.h ****   \details Disables IRQ interrupts by setting the I-bit in the CPSR.
 138:Drivers/CMSIS/Include/cmsis_gcc.h ****            Can only be executed in Privileged modes.
 139:Drivers/CMSIS/Include/cmsis_gcc.h ****  */
 140:Drivers/CMSIS/Include/cmsis_gcc.h **** __STATIC_FORCEINLINE void __disable_irq(void)
 367              		.loc 2 140 27 view .LVU84
 368              	.LBB5:
 141:Drivers/CMSIS/Include/cmsis_gcc.h **** {
 142:Drivers/CMSIS/Include/cmsis_gcc.h ****   __ASM volatile ("cpsid i" : : : "memory");
 369              		.loc 2 142 3 view .LVU85
 370              		.syntax unified
 371              	@ 142 "Drivers/CMSIS/Include/cmsis_gcc.h" 1
 372 0000 72B6     		cpsid i
 373              	@ 0 "" 2
 374              		.thumb
 375              		.syntax unified
 376              	.L29:
 377              	.LBE5:
 378              	.LBE4:
 442:Core/Src/main.c ****   while (1)
 379              		.loc 1 442 3 discriminator 1 view .LVU86
 443:Core/Src/main.c ****   {
 444:Core/Src/main.c ****   }
 380              		.loc 1 444 3 discriminator 1 view .LVU87
 442:Core/Src/main.c ****   while (1)
 381              		.loc 1 442 9 discriminator 1 view .LVU88
 382 0002 FEE7     		b	.L29
 383              		.cfi_endproc
 384              	.LFE74:
 386              		.section	.text.SystemClock_Config,"ax",%progbits
 387              		.align	1
 388              		.global	SystemClock_Config
ARM GAS  C:\Users\Admin\AppData\Local\Temp\ccgbUHXa.s 			page 19


 389              		.syntax unified
 390              		.thumb
 391              		.thumb_func
 393              	SystemClock_Config:
 394              	.LFB73:
 396:Core/Src/main.c ****   RCC_OscInitTypeDef RCC_OscInitStruct = {0};
 395              		.loc 1 396 1 view -0
 396              		.cfi_startproc
 397              		@ args = 0, pretend = 0, frame = 64
 398              		@ frame_needed = 0, uses_anonymous_args = 0
 399 0000 00B5     		push	{lr}
 400              	.LCFI3:
 401              		.cfi_def_cfa_offset 4
 402              		.cfi_offset 14, -4
 403 0002 91B0     		sub	sp, sp, #68
 404              	.LCFI4:
 405              		.cfi_def_cfa_offset 72
 397:Core/Src/main.c ****   RCC_ClkInitTypeDef RCC_ClkInitStruct = {0};
 406              		.loc 1 397 3 view .LVU90
 397:Core/Src/main.c ****   RCC_ClkInitTypeDef RCC_ClkInitStruct = {0};
 407              		.loc 1 397 22 is_stmt 0 view .LVU91
 408 0004 2822     		movs	r2, #40
 409 0006 0021     		movs	r1, #0
 410 0008 06A8     		add	r0, sp, #24
 411 000a FFF7FEFF 		bl	memset
 412              	.LVL25:
 398:Core/Src/main.c **** 
 413              		.loc 1 398 3 is_stmt 1 view .LVU92
 398:Core/Src/main.c **** 
 414              		.loc 1 398 22 is_stmt 0 view .LVU93
 415 000e 0023     		movs	r3, #0
 416 0010 0193     		str	r3, [sp, #4]
 417 0012 0293     		str	r3, [sp, #8]
 418 0014 0393     		str	r3, [sp, #12]
 419 0016 0493     		str	r3, [sp, #16]
 420 0018 0593     		str	r3, [sp, #20]
 403:Core/Src/main.c ****   RCC_OscInitStruct.HSEState = RCC_HSE_ON;
 421              		.loc 1 403 3 is_stmt 1 view .LVU94
 403:Core/Src/main.c ****   RCC_OscInitStruct.HSEState = RCC_HSE_ON;
 422              		.loc 1 403 36 is_stmt 0 view .LVU95
 423 001a 0122     		movs	r2, #1
 424 001c 0692     		str	r2, [sp, #24]
 404:Core/Src/main.c ****   RCC_OscInitStruct.HSEPredivValue = RCC_HSE_PREDIV_DIV1;
 425              		.loc 1 404 3 is_stmt 1 view .LVU96
 404:Core/Src/main.c ****   RCC_OscInitStruct.HSEPredivValue = RCC_HSE_PREDIV_DIV1;
 426              		.loc 1 404 30 is_stmt 0 view .LVU97
 427 001e 4FF48033 		mov	r3, #65536
 428 0022 0793     		str	r3, [sp, #28]
 405:Core/Src/main.c ****   RCC_OscInitStruct.HSIState = RCC_HSI_ON;
 429              		.loc 1 405 3 is_stmt 1 view .LVU98
 406:Core/Src/main.c ****   RCC_OscInitStruct.PLL.PLLState = RCC_PLL_ON;
 430              		.loc 1 406 3 view .LVU99
 406:Core/Src/main.c ****   RCC_OscInitStruct.PLL.PLLState = RCC_PLL_ON;
 431              		.loc 1 406 30 is_stmt 0 view .LVU100
 432 0024 0A92     		str	r2, [sp, #40]
 407:Core/Src/main.c ****   RCC_OscInitStruct.PLL.PLLSource = RCC_PLLSOURCE_HSE;
 433              		.loc 1 407 3 is_stmt 1 view .LVU101
ARM GAS  C:\Users\Admin\AppData\Local\Temp\ccgbUHXa.s 			page 20


 407:Core/Src/main.c ****   RCC_OscInitStruct.PLL.PLLSource = RCC_PLLSOURCE_HSE;
 434              		.loc 1 407 34 is_stmt 0 view .LVU102
 435 0026 0222     		movs	r2, #2
 436 0028 0D92     		str	r2, [sp, #52]
 408:Core/Src/main.c ****   RCC_OscInitStruct.PLL.PLLMUL = RCC_PLL_MUL9;
 437              		.loc 1 408 3 is_stmt 1 view .LVU103
 408:Core/Src/main.c ****   RCC_OscInitStruct.PLL.PLLMUL = RCC_PLL_MUL9;
 438              		.loc 1 408 35 is_stmt 0 view .LVU104
 439 002a 0E93     		str	r3, [sp, #56]
 409:Core/Src/main.c ****   if (HAL_RCC_OscConfig(&RCC_OscInitStruct) != HAL_OK)
 440              		.loc 1 409 3 is_stmt 1 view .LVU105
 409:Core/Src/main.c ****   if (HAL_RCC_OscConfig(&RCC_OscInitStruct) != HAL_OK)
 441              		.loc 1 409 32 is_stmt 0 view .LVU106
 442 002c 4FF4E013 		mov	r3, #1835008
 443 0030 0F93     		str	r3, [sp, #60]
 410:Core/Src/main.c ****   {
 444              		.loc 1 410 3 is_stmt 1 view .LVU107
 410:Core/Src/main.c ****   {
 445              		.loc 1 410 7 is_stmt 0 view .LVU108
 446 0032 06A8     		add	r0, sp, #24
 447 0034 FFF7FEFF 		bl	HAL_RCC_OscConfig
 448              	.LVL26:
 410:Core/Src/main.c ****   {
 449              		.loc 1 410 6 view .LVU109
 450 0038 80B9     		cbnz	r0, .L34
 417:Core/Src/main.c ****   RCC_ClkInitStruct.SYSCLKSource = RCC_SYSCLKSOURCE_PLLCLK;
 451              		.loc 1 417 3 is_stmt 1 view .LVU110
 417:Core/Src/main.c ****   RCC_ClkInitStruct.SYSCLKSource = RCC_SYSCLKSOURCE_PLLCLK;
 452              		.loc 1 417 31 is_stmt 0 view .LVU111
 453 003a 0F23     		movs	r3, #15
 454 003c 0193     		str	r3, [sp, #4]
 418:Core/Src/main.c ****   RCC_ClkInitStruct.AHBCLKDivider = RCC_SYSCLK_DIV1;
 455              		.loc 1 418 3 is_stmt 1 view .LVU112
 418:Core/Src/main.c ****   RCC_ClkInitStruct.AHBCLKDivider = RCC_SYSCLK_DIV1;
 456              		.loc 1 418 34 is_stmt 0 view .LVU113
 457 003e 0221     		movs	r1, #2
 458 0040 0291     		str	r1, [sp, #8]
 419:Core/Src/main.c ****   RCC_ClkInitStruct.APB1CLKDivider = RCC_HCLK_DIV2;
 459              		.loc 1 419 3 is_stmt 1 view .LVU114
 419:Core/Src/main.c ****   RCC_ClkInitStruct.APB1CLKDivider = RCC_HCLK_DIV2;
 460              		.loc 1 419 35 is_stmt 0 view .LVU115
 461 0042 0023     		movs	r3, #0
 462 0044 0393     		str	r3, [sp, #12]
 420:Core/Src/main.c ****   RCC_ClkInitStruct.APB2CLKDivider = RCC_HCLK_DIV1;
 463              		.loc 1 420 3 is_stmt 1 view .LVU116
 420:Core/Src/main.c ****   RCC_ClkInitStruct.APB2CLKDivider = RCC_HCLK_DIV1;
 464              		.loc 1 420 36 is_stmt 0 view .LVU117
 465 0046 4FF48062 		mov	r2, #1024
 466 004a 0492     		str	r2, [sp, #16]
 421:Core/Src/main.c **** 
 467              		.loc 1 421 3 is_stmt 1 view .LVU118
 421:Core/Src/main.c **** 
 468              		.loc 1 421 36 is_stmt 0 view .LVU119
 469 004c 0593     		str	r3, [sp, #20]
 423:Core/Src/main.c ****   {
 470              		.loc 1 423 3 is_stmt 1 view .LVU120
 423:Core/Src/main.c ****   {
ARM GAS  C:\Users\Admin\AppData\Local\Temp\ccgbUHXa.s 			page 21


 471              		.loc 1 423 7 is_stmt 0 view .LVU121
 472 004e 01A8     		add	r0, sp, #4
 473 0050 FFF7FEFF 		bl	HAL_RCC_ClockConfig
 474              	.LVL27:
 423:Core/Src/main.c ****   {
 475              		.loc 1 423 6 view .LVU122
 476 0054 20B9     		cbnz	r0, .L35
 427:Core/Src/main.c **** 
 477              		.loc 1 427 1 view .LVU123
 478 0056 11B0     		add	sp, sp, #68
 479              	.LCFI5:
 480              		.cfi_remember_state
 481              		.cfi_def_cfa_offset 4
 482              		@ sp needed
 483 0058 5DF804FB 		ldr	pc, [sp], #4
 484              	.L34:
 485              	.LCFI6:
 486              		.cfi_restore_state
 412:Core/Src/main.c ****   }
 487              		.loc 1 412 5 is_stmt 1 view .LVU124
 488 005c FFF7FEFF 		bl	Error_Handler
 489              	.LVL28:
 490              	.L35:
 425:Core/Src/main.c ****   }
 491              		.loc 1 425 5 view .LVU125
 492 0060 FFF7FEFF 		bl	Error_Handler
 493              	.LVL29:
 494              		.cfi_endproc
 495              	.LFE73:
 497              		.section	.rodata.main.str1.4,"aMS",%progbits,1
 498              		.align	2
 499              	.LC2:
 500 0000 5465616D 		.ascii	"Team 17\000"
 500      20313700 
 501              		.align	2
 502              	.LC3:
 503 0008 54656D70 		.ascii	"Temp: \000"
 503      3A2000
 504 000f 00       		.align	2
 505              	.LC4:
 506 0010 48756D69 		.ascii	"Humi: \000"
 506      3A2000
 507 0017 00       		.align	2
 508              	.LC5:
 509 0018 526F7461 		.ascii	"Rota: \000"
 509      3A2000
 510 001f 00       		.align	2
 511              	.LC6:
 512 0020 7461736B 		.ascii	"task sensor\012\000"
 512      2073656E 
 512      736F720A 
 512      00
 513              		.global	__aeabi_ui2f
 514              		.global	__aeabi_i2d
 515              		.global	__aeabi_ddiv
 516              		.global	__aeabi_d2f
 517              		.global	__aeabi_fadd
ARM GAS  C:\Users\Admin\AppData\Local\Temp\ccgbUHXa.s 			page 22


 518              		.global	__aeabi_f2iz
 519 002d 000000   		.align	2
 520              	.LC7:
 521 0030 7461736B 		.ascii	"task control\012\000"
 521      20636F6E 
 521      74726F6C 
 521      0A00
 522              		.global	__aeabi_i2f
 523              		.global	__aeabi_fcmpgt
 524 003e 0000     		.align	2
 525              	.LC8:
 526 0040 7461736B 		.ascii	"task display\012\000"
 526      20646973 
 526      706C6179 
 526      0A00
 527 004e 0000     		.align	2
 528              	.LC9:
 529 0050 54656D70 		.ascii	"Temp: %d C\000"
 529      3A202564 
 529      204300
 530 005b 00       		.align	2
 531              	.LC10:
 532 005c 48756D69 		.ascii	"Humi: %d \000"
 532      3A202564 
 532      2000
 533 0066 0000     		.align	2
 534              	.LC11:
 535 0068 0A00     		.ascii	"\012\000"
 536 006a 0000     		.align	2
 537              	.LC12:
 538 006c 526F7461 		.ascii	"Rota: %d  \000"
 538      3A202564 
 538      202000
 539 0077 00       		.align	2
 540              	.LC13:
 541 0078 5761726E 		.ascii	"Warnning\000"
 541      6E696E67 
 541      00
 542 0081 000000   		.align	2
 543              	.LC14:
 544 0084 20202020 		.ascii	"          \000"
 544      20202020 
 544      202000
 545 008f 00       		.align	2
 546              	.LC15:
 547 0090 2500     		.ascii	"%\000"
 548 0092 0000     		.align	2
 549              	.LC16:
 550 0094 526F7461 		.ascii	"Rota\000"
 550      00
 551 0099 000000   		.align	2
 552              	.LC17:
 553 009c 252A5B5E 		.ascii	"%*[^0-9]%d\000"
 553      302D395D 
 553      256400
 554              		.global	__aeabi_d2iz
 555 00a7 00       		.align	2
ARM GAS  C:\Users\Admin\AppData\Local\Temp\ccgbUHXa.s 			page 23


 556              	.LC18:
 557 00a8 0A504320 		.ascii	"\012PC control \000"
 557      636F6E74 
 557      726F6C20 
 557      00
 558 00b5 000000   		.align	2
 559              	.LC19:
 560 00b8 54687265 		.ascii	"Threshold\000"
 560      73686F6C 
 560      6400
 561 00c2 0000     		.align	2
 562              	.LC21:
 563 00c4 25732573 		.ascii	"%s%s\000"
 563      00
 564 00c9 000000   		.align	2
 565              	.LC22:
 566 00cc 0A504320 		.ascii	"\012PC set Threshold: \000"
 566      73657420 
 566      54687265 
 566      73686F6C 
 566      643A2000 
 567              		.align	2
 568              	.LC20:
 569 00e0 54687265 		.ascii	"Thres: \000"
 569      733A2000 
 570              		.section	.text.main,"ax",%progbits
 571              		.align	1
 572              		.global	main
 573              		.syntax unified
 574              		.thumb
 575              		.thumb_func
 577              	main:
 578              	.LFB72:
 180:Core/Src/main.c ****   /* USER CODE BEGIN 1 */
 579              		.loc 1 180 1 view -0
 580              		.cfi_startproc
 581              		@ Volatile: function does not return.
 582              		@ args = 0, pretend = 0, frame = 8
 583              		@ frame_needed = 0, uses_anonymous_args = 0
 584 0000 80B5     		push	{r7, lr}
 585              	.LCFI7:
 586              		.cfi_def_cfa_offset 8
 587              		.cfi_offset 7, -8
 588              		.cfi_offset 14, -4
 589 0002 86B0     		sub	sp, sp, #24
 590              	.LCFI8:
 591              		.cfi_def_cfa_offset 32
 188:Core/Src/main.c **** 
 592              		.loc 1 188 3 view .LVU127
 593 0004 FFF7FEFF 		bl	HAL_Init
 594              	.LVL30:
 195:Core/Src/main.c **** 
 595              		.loc 1 195 3 view .LVU128
 596 0008 FFF7FEFF 		bl	SystemClock_Config
 597              	.LVL31:
 202:Core/Src/main.c ****   MX_SPI2_Init();
 598              		.loc 1 202 3 view .LVU129
ARM GAS  C:\Users\Admin\AppData\Local\Temp\ccgbUHXa.s 			page 24


 599 000c FFF7FEFF 		bl	MX_GPIO_Init
 600              	.LVL32:
 203:Core/Src/main.c ****   MX_TIM1_Init();
 601              		.loc 1 203 3 view .LVU130
 602 0010 FFF7FEFF 		bl	MX_SPI2_Init
 603              	.LVL33:
 204:Core/Src/main.c ****   MX_USART3_UART_Init();
 604              		.loc 1 204 3 view .LVU131
 605 0014 FFF7FEFF 		bl	MX_TIM1_Init
 606              	.LVL34:
 205:Core/Src/main.c ****   MX_TIM2_Init();
 607              		.loc 1 205 3 view .LVU132
 608 0018 FFF7FEFF 		bl	MX_USART3_UART_Init
 609              	.LVL35:
 206:Core/Src/main.c ****   MX_TIM3_Init();
 610              		.loc 1 206 3 view .LVU133
 611 001c FFF7FEFF 		bl	MX_TIM2_Init
 612              	.LVL36:
 207:Core/Src/main.c ****   /* USER CODE BEGIN 2 */
 613              		.loc 1 207 3 view .LVU134
 614 0020 FFF7FEFF 		bl	MX_TIM3_Init
 615              	.LVL37:
 210:Core/Src/main.c ****   // init LCD TFT
 616              		.loc 1 210 3 view .LVU135
 617 0024 0021     		movs	r1, #0
 618 0026 7D48     		ldr	r0, .L60
 619 0028 FFF7FEFF 		bl	HAL_TIM_PWM_Start
 620              	.LVL38:
 212:Core/Src/main.c ****   // Timer 1 to gen delay for DHT22
 621              		.loc 1 212 3 view .LVU136
 622 002c FFF7FEFF 		bl	ST7735_Init
 623              	.LVL39:
 214:Core/Src/main.c ****   // set screen
 624              		.loc 1 214 3 view .LVU137
 625 0030 7B48     		ldr	r0, .L60+4
 626 0032 FFF7FEFF 		bl	HAL_TIM_Base_Start
 627              	.LVL40:
 216:Core/Src/main.c ****   ST7735_WriteString(25, 0, "Team 17", Font_11x18, ST7735_RED, ST7735_BLACK);
 628              		.loc 1 216 3 view .LVU138
 629 0036 0020     		movs	r0, #0
 630 0038 FFF7FEFF 		bl	ST7735_FillScreen
 631              	.LVL41:
 217:Core/Src/main.c ****   ST7735_WriteString(0, 30, "Temp: ", Font_11x18, ST7735_RED, ST7735_BLACK);
 632              		.loc 1 217 3 view .LVU139
 633 003c 794D     		ldr	r5, .L60+8
 634 003e 0024     		movs	r4, #0
 635 0040 0294     		str	r4, [sp, #8]
 636 0042 4FF47846 		mov	r6, #63488
 637 0046 0196     		str	r6, [sp, #4]
 638 0048 6B68     		ldr	r3, [r5, #4]
 639 004a 0093     		str	r3, [sp]
 640 004c 2B68     		ldr	r3, [r5]
 641 004e 764A     		ldr	r2, .L60+12
 642 0050 2146     		mov	r1, r4
 643 0052 1920     		movs	r0, #25
 644 0054 FFF7FEFF 		bl	ST7735_WriteString
 645              	.LVL42:
ARM GAS  C:\Users\Admin\AppData\Local\Temp\ccgbUHXa.s 			page 25


 218:Core/Src/main.c ****   ST7735_WriteString(0, 3 * 10 * 2, "Humi: ", Font_11x18, ST7735_RED, ST7735_BLACK);
 646              		.loc 1 218 3 view .LVU140
 647 0058 0294     		str	r4, [sp, #8]
 648 005a 0196     		str	r6, [sp, #4]
 649 005c 6B68     		ldr	r3, [r5, #4]
 650 005e 0093     		str	r3, [sp]
 651 0060 2B68     		ldr	r3, [r5]
 652 0062 724A     		ldr	r2, .L60+16
 653 0064 1E21     		movs	r1, #30
 654 0066 2046     		mov	r0, r4
 655 0068 FFF7FEFF 		bl	ST7735_WriteString
 656              	.LVL43:
 219:Core/Src/main.c ****   ST7735_WriteString(0, 3 * 10 * 3, "Rota: ", Font_11x18, ST7735_GREEN, ST7735_BLACK);
 657              		.loc 1 219 3 view .LVU141
 658 006c 0294     		str	r4, [sp, #8]
 659 006e 0196     		str	r6, [sp, #4]
 660 0070 6B68     		ldr	r3, [r5, #4]
 661 0072 0093     		str	r3, [sp]
 662 0074 2B68     		ldr	r3, [r5]
 663 0076 6E4A     		ldr	r2, .L60+20
 664 0078 3C21     		movs	r1, #60
 665 007a 2046     		mov	r0, r4
 666 007c FFF7FEFF 		bl	ST7735_WriteString
 667              	.LVL44:
 220:Core/Src/main.c ****   //sprintf(thres_tring,"Thresh: %.1f",PC_threshold);
 668              		.loc 1 220 3 view .LVU142
 669 0080 0294     		str	r4, [sp, #8]
 670 0082 4FF4FC66 		mov	r6, #2016
 671 0086 0196     		str	r6, [sp, #4]
 672 0088 6B68     		ldr	r3, [r5, #4]
 673 008a 0093     		str	r3, [sp]
 674 008c 2B68     		ldr	r3, [r5]
 675 008e 694A     		ldr	r2, .L60+24
 676 0090 5A21     		movs	r1, #90
 677 0092 2046     		mov	r0, r4
 678 0094 FFF7FEFF 		bl	ST7735_WriteString
 679              	.LVL45:
 223:Core/Src/main.c **** 
 680              		.loc 1 223 3 view .LVU143
 681 0098 0294     		str	r4, [sp, #8]
 682 009a 0196     		str	r6, [sp, #4]
 683 009c 6B68     		ldr	r3, [r5, #4]
 684 009e 0093     		str	r3, [sp]
 685 00a0 2B68     		ldr	r3, [r5]
 686 00a2 654A     		ldr	r2, .L60+28
 687 00a4 7821     		movs	r1, #120
 688 00a6 2046     		mov	r0, r4
 689 00a8 FFF7FEFF 		bl	ST7735_WriteString
 690              	.LVL46:
 226:Core/Src/main.c **** 
 691              		.loc 1 226 3 view .LVU144
 692 00ac 4FF47A70 		mov	r0, #1000
 693 00b0 FFF7FEFF 		bl	HAL_Delay
 694              	.LVL47:
 228:Core/Src/main.c ****   HAL_TIM_Base_Start_IT(&htim3);
 695              		.loc 1 228 3 view .LVU145
 696 00b4 4FF47A70 		mov	r0, #1000
ARM GAS  C:\Users\Admin\AppData\Local\Temp\ccgbUHXa.s 			page 26


 697 00b8 FFF7FEFF 		bl	set_timer
 698              	.LVL48:
 229:Core/Src/main.c **** 
 699              		.loc 1 229 3 view .LVU146
 700 00bc 5F48     		ldr	r0, .L60+32
 701 00be FFF7FEFF 		bl	HAL_TIM_Base_Start_IT
 702              	.LVL49:
 232:Core/Src/main.c ****   /* USER CODE END 2 */
 703              		.loc 1 232 3 view .LVU147
 704 00c2 0122     		movs	r2, #1
 705 00c4 5E49     		ldr	r1, .L60+36
 706 00c6 5F48     		ldr	r0, .L60+40
 707 00c8 FFF7FEFF 		bl	HAL_UART_Receive_IT
 708              	.LVL50:
 709 00cc 12E0     		b	.L49
 710              	.L37:
 245:Core/Src/main.c ****       {
 711              		.loc 1 245 7 view .LVU148
 245:Core/Src/main.c ****       {
 712              		.loc 1 245 21 is_stmt 0 view .LVU149
 713 00ce 5E4B     		ldr	r3, .L60+44
 714 00d0 1B68     		ldr	r3, [r3]
 245:Core/Src/main.c ****       {
 715              		.loc 1 245 10 view .LVU150
 716 00d2 1BB9     		cbnz	r3, .L40
 247:Core/Src/main.c ****         {
 717              		.loc 1 247 9 is_stmt 1 view .LVU151
 247:Core/Src/main.c ****         {
 718              		.loc 1 247 13 is_stmt 0 view .LVU152
 719 00d4 5D4B     		ldr	r3, .L60+48
 720 00d6 1B78     		ldrb	r3, [r3]	@ zero_extendqisi2
 247:Core/Src/main.c ****         {
 721              		.loc 1 247 12 view .LVU153
 722 00d8 002B     		cmp	r3, #0
 723 00da 2ED0     		beq	.L55
 724              	.L40:
 269:Core/Src/main.c ****         {
 725              		.loc 1 269 9 is_stmt 1 view .LVU154
 269:Core/Src/main.c ****         {
 726              		.loc 1 269 23 is_stmt 0 view .LVU155
 727 00dc 5A4B     		ldr	r3, .L60+44
 728 00de 1B68     		ldr	r3, [r3]
 269:Core/Src/main.c ****         {
 729              		.loc 1 269 12 view .LVU156
 730 00e0 012B     		cmp	r3, #1
 731 00e2 7CD0     		beq	.L56
 732              	.L41:
 299:Core/Src/main.c ****         {
 733              		.loc 1 299 9 is_stmt 1 view .LVU157
 299:Core/Src/main.c ****         {
 734              		.loc 1 299 23 is_stmt 0 view .LVU158
 735 00e4 584B     		ldr	r3, .L60+44
 736 00e6 1B68     		ldr	r3, [r3]
 299:Core/Src/main.c ****         {
 737              		.loc 1 299 12 view .LVU159
 738 00e8 022B     		cmp	r3, #2
 739 00ea 00F0D380 		beq	.L57
ARM GAS  C:\Users\Admin\AppData\Local\Temp\ccgbUHXa.s 			page 27


 740              	.L39:
 370:Core/Src/main.c ****       // HAL_TIM_Base_Stop(&htim3);
 741              		.loc 1 370 7 is_stmt 1 view .LVU160
 742 00ee 6420     		movs	r0, #100
 743 00f0 FFF7FEFF 		bl	HAL_Delay
 744              	.LVL51:
 237:Core/Src/main.c ****   {
 745              		.loc 1 237 9 view .LVU161
 746              	.L49:
 237:Core/Src/main.c ****   {
 747              		.loc 1 237 3 view .LVU162
 242:Core/Src/main.c ****     {
 748              		.loc 1 242 5 view .LVU163
 749 00f4 564B     		ldr	r3, .L60+52
 750 00f6 1B68     		ldr	r3, [r3]
 751 00f8 032B     		cmp	r3, #3
 752 00fa E8D0     		beq	.L37
 753 00fc 042B     		cmp	r3, #4
 754 00fe F6D1     		bne	.L39
 334:Core/Src/main.c ****         {
 755              		.loc 1 334 9 view .LVU164
 334:Core/Src/main.c ****         {
 756              		.loc 1 334 13 is_stmt 0 view .LVU165
 757 0100 544B     		ldr	r3, .L60+56
 758 0102 1B78     		ldrb	r3, [r3]	@ zero_extendqisi2
 334:Core/Src/main.c ****         {
 759              		.loc 1 334 12 view .LVU166
 760 0104 002B     		cmp	r3, #0
 761 0106 F2D0     		beq	.L39
 336:Core/Src/main.c ****           if (strncmp(buffer_data, "Rota", 4) == 0)
 762              		.loc 1 336 11 is_stmt 1 view .LVU167
 336:Core/Src/main.c ****           if (strncmp(buffer_data, "Rota", 4) == 0)
 763              		.loc 1 336 23 is_stmt 0 view .LVU168
 764 0108 524B     		ldr	r3, .L60+56
 765 010a 0022     		movs	r2, #0
 766 010c 1A70     		strb	r2, [r3]
 337:Core/Src/main.c ****           {
 767              		.loc 1 337 11 is_stmt 1 view .LVU169
 337:Core/Src/main.c ****           {
 768              		.loc 1 337 15 is_stmt 0 view .LVU170
 769 010e 0422     		movs	r2, #4
 770 0110 5149     		ldr	r1, .L60+60
 771 0112 5248     		ldr	r0, .L60+64
 772 0114 FFF7FEFF 		bl	strncmp
 773              	.LVL52:
 337:Core/Src/main.c ****           {
 774              		.loc 1 337 14 view .LVU171
 775 0118 0028     		cmp	r0, #0
 776 011a 00F05981 		beq	.L58
 777              	.L47:
 348:Core/Src/main.c ****           {
 778              		.loc 1 348 11 is_stmt 1 view .LVU172
 348:Core/Src/main.c ****           {
 779              		.loc 1 348 15 is_stmt 0 view .LVU173
 780 011e 0922     		movs	r2, #9
 781 0120 4F49     		ldr	r1, .L60+68
 782 0122 4E48     		ldr	r0, .L60+64
ARM GAS  C:\Users\Admin\AppData\Local\Temp\ccgbUHXa.s 			page 28


 783 0124 FFF7FEFF 		bl	strncmp
 784              	.LVL53:
 348:Core/Src/main.c ****           {
 785              		.loc 1 348 14 view .LVU174
 786 0128 0028     		cmp	r0, #0
 787 012a 00F08081 		beq	.L59
 788              	.L48:
 366:Core/Src/main.c ****           // HAL_TIM_Base_Start_IT(&htim3);
 789              		.loc 1 366 11 is_stmt 1 view .LVU175
 790 012e 3222     		movs	r2, #50
 791 0130 0021     		movs	r1, #0
 792 0132 4A48     		ldr	r0, .L60+64
 793 0134 FFF7FEFF 		bl	memset
 794              	.LVL54:
 795 0138 D9E7     		b	.L39
 796              	.L55:
 249:Core/Src/main.c ****           log_data("task sensor\n");
 797              		.loc 1 249 11 view .LVU176
 249:Core/Src/main.c ****           log_data("task sensor\n");
 798              		.loc 1 249 21 is_stmt 0 view .LVU177
 799 013a 444B     		ldr	r3, .L60+48
 800 013c 0122     		movs	r2, #1
 801 013e 1A70     		strb	r2, [r3]
 250:Core/Src/main.c ****           if (DHT11_Start())
 802              		.loc 1 250 11 is_stmt 1 view .LVU178
 803 0140 4848     		ldr	r0, .L60+72
 804 0142 FFF7FEFF 		bl	log_data
 805              	.LVL55:
 251:Core/Src/main.c ****           {
 806              		.loc 1 251 11 view .LVU179
 251:Core/Src/main.c ****           {
 807              		.loc 1 251 15 is_stmt 0 view .LVU180
 808 0146 FFF7FEFF 		bl	DHT11_Start
 809              	.LVL56:
 251:Core/Src/main.c ****           {
 810              		.loc 1 251 14 view .LVU181
 811 014a 0028     		cmp	r0, #0
 812 014c C6D0     		beq	.L40
 253:Core/Src/main.c ****             RHD = DHT11_Read(); // Relative humidity decimal
 813              		.loc 1 253 13 is_stmt 1 view .LVU182
 253:Core/Src/main.c ****             RHD = DHT11_Read(); // Relative humidity decimal
 814              		.loc 1 253 19 is_stmt 0 view .LVU183
 815 014e FFF7FEFF 		bl	DHT11_Read
 816              	.LVL57:
 253:Core/Src/main.c ****             RHD = DHT11_Read(); // Relative humidity decimal
 817              		.loc 1 253 17 view .LVU184
 818 0152 454F     		ldr	r7, .L60+76
 819 0154 3870     		strb	r0, [r7]
 254:Core/Src/main.c ****             TCI = DHT11_Read(); // Celsius integral
 820              		.loc 1 254 13 is_stmt 1 view .LVU185
 254:Core/Src/main.c ****             TCI = DHT11_Read(); // Celsius integral
 821              		.loc 1 254 19 is_stmt 0 view .LVU186
 822 0156 FFF7FEFF 		bl	DHT11_Read
 823              	.LVL58:
 254:Core/Src/main.c ****             TCI = DHT11_Read(); // Celsius integral
 824              		.loc 1 254 17 view .LVU187
 825 015a 444E     		ldr	r6, .L60+80
ARM GAS  C:\Users\Admin\AppData\Local\Temp\ccgbUHXa.s 			page 29


 826 015c 3070     		strb	r0, [r6]
 255:Core/Src/main.c ****             TCD = DHT11_Read(); // Celsius decimal
 827              		.loc 1 255 13 is_stmt 1 view .LVU188
 255:Core/Src/main.c ****             TCD = DHT11_Read(); // Celsius decimal
 828              		.loc 1 255 19 is_stmt 0 view .LVU189
 829 015e FFF7FEFF 		bl	DHT11_Read
 830              	.LVL59:
 255:Core/Src/main.c ****             TCD = DHT11_Read(); // Celsius decimal
 831              		.loc 1 255 17 view .LVU190
 832 0162 434D     		ldr	r5, .L60+84
 833 0164 2870     		strb	r0, [r5]
 256:Core/Src/main.c ****             SUM = DHT11_Read(); // Check sum
 834              		.loc 1 256 13 is_stmt 1 view .LVU191
 256:Core/Src/main.c ****             SUM = DHT11_Read(); // Check sum
 835              		.loc 1 256 19 is_stmt 0 view .LVU192
 836 0166 FFF7FEFF 		bl	DHT11_Read
 837              	.LVL60:
 256:Core/Src/main.c ****             SUM = DHT11_Read(); // Check sum
 838              		.loc 1 256 17 view .LVU193
 839 016a 424C     		ldr	r4, .L60+88
 840 016c 2070     		strb	r0, [r4]
 257:Core/Src/main.c ****             if (RHI + RHD + TCI + TCD == SUM)
 841              		.loc 1 257 13 is_stmt 1 view .LVU194
 257:Core/Src/main.c ****             if (RHI + RHD + TCI + TCD == SUM)
 842              		.loc 1 257 19 is_stmt 0 view .LVU195
 843 016e FFF7FEFF 		bl	DHT11_Read
 844              	.LVL61:
 845 0172 0246     		mov	r2, r0
 257:Core/Src/main.c ****             if (RHI + RHD + TCI + TCD == SUM)
 846              		.loc 1 257 17 view .LVU196
 847 0174 404B     		ldr	r3, .L60+92
 848 0176 1870     		strb	r0, [r3]
 258:Core/Src/main.c ****             {
 849              		.loc 1 258 13 is_stmt 1 view .LVU197
 258:Core/Src/main.c ****             {
 850              		.loc 1 258 21 is_stmt 0 view .LVU198
 851 0178 3F78     		ldrb	r7, [r7]	@ zero_extendqisi2
 852 017a 3678     		ldrb	r6, [r6]	@ zero_extendqisi2
 853 017c BB19     		adds	r3, r7, r6
 258:Core/Src/main.c ****             {
 854              		.loc 1 258 27 view .LVU199
 855 017e 2878     		ldrb	r0, [r5]	@ zero_extendqisi2
 856 0180 0344     		add	r3, r3, r0
 258:Core/Src/main.c ****             {
 857              		.loc 1 258 33 view .LVU200
 858 0182 2478     		ldrb	r4, [r4]	@ zero_extendqisi2
 859 0184 2344     		add	r3, r3, r4
 258:Core/Src/main.c ****             {
 860              		.loc 1 258 16 view .LVU201
 861 0186 9342     		cmp	r3, r2
 862 0188 A8D1     		bne	.L40
 261:Core/Src/main.c ****               humi = (float)RHI + (float)(RHD / 10.0);
 863              		.loc 1 261 15 is_stmt 1 view .LVU202
 261:Core/Src/main.c ****               humi = (float)RHI + (float)(RHD / 10.0);
 864              		.loc 1 261 22 is_stmt 0 view .LVU203
 865 018a FFF7FEFF 		bl	__aeabi_ui2f
 866              	.LVL62:
ARM GAS  C:\Users\Admin\AppData\Local\Temp\ccgbUHXa.s 			page 30


 867 018e 0546     		mov	r5, r0
 261:Core/Src/main.c ****               humi = (float)RHI + (float)(RHD / 10.0);
 868              		.loc 1 261 47 view .LVU204
 869 0190 2046     		mov	r0, r4
 870 0192 FFF7FEFF 		bl	__aeabi_i2d
 871              	.LVL63:
 872 0196 0022     		movs	r2, #0
 873 0198 384B     		ldr	r3, .L60+96
 874 019a FFF7FEFF 		bl	__aeabi_ddiv
 875              	.LVL64:
 261:Core/Src/main.c ****               humi = (float)RHI + (float)(RHD / 10.0);
 876              		.loc 1 261 35 view .LVU205
 877 019e FFF7FEFF 		bl	__aeabi_d2f
 878              	.LVL65:
 879 01a2 0146     		mov	r1, r0
 261:Core/Src/main.c ****               humi = (float)RHI + (float)(RHD / 10.0);
 880              		.loc 1 261 33 view .LVU206
 881 01a4 2846     		mov	r0, r5
 882 01a6 FFF7FEFF 		bl	__aeabi_fadd
 883              	.LVL66:
 261:Core/Src/main.c ****               humi = (float)RHI + (float)(RHD / 10.0);
 884              		.loc 1 261 20 view .LVU207
 885 01aa FFF7FEFF 		bl	__aeabi_f2iz
 886              	.LVL67:
 887 01ae 344B     		ldr	r3, .L60+100
 888 01b0 1860     		str	r0, [r3]
 262:Core/Src/main.c ****               // Can use tCelsius, tFahrenheit and RH for any purposes
 889              		.loc 1 262 15 is_stmt 1 view .LVU208
 262:Core/Src/main.c ****               // Can use tCelsius, tFahrenheit and RH for any purposes
 890              		.loc 1 262 22 is_stmt 0 view .LVU209
 891 01b2 3846     		mov	r0, r7
 892 01b4 FFF7FEFF 		bl	__aeabi_ui2f
 893              	.LVL68:
 894 01b8 0446     		mov	r4, r0
 262:Core/Src/main.c ****               // Can use tCelsius, tFahrenheit and RH for any purposes
 895              		.loc 1 262 47 view .LVU210
 896 01ba 3046     		mov	r0, r6
 897 01bc FFF7FEFF 		bl	__aeabi_i2d
 898              	.LVL69:
 899 01c0 0022     		movs	r2, #0
 900 01c2 2E4B     		ldr	r3, .L60+96
 901 01c4 FFF7FEFF 		bl	__aeabi_ddiv
 902              	.LVL70:
 262:Core/Src/main.c ****               // Can use tCelsius, tFahrenheit and RH for any purposes
 903              		.loc 1 262 35 view .LVU211
 904 01c8 FFF7FEFF 		bl	__aeabi_d2f
 905              	.LVL71:
 906 01cc 0146     		mov	r1, r0
 262:Core/Src/main.c ****               // Can use tCelsius, tFahrenheit and RH for any purposes
 907              		.loc 1 262 33 view .LVU212
 908 01ce 2046     		mov	r0, r4
 909 01d0 FFF7FEFF 		bl	__aeabi_fadd
 910              	.LVL72:
 262:Core/Src/main.c ****               // Can use tCelsius, tFahrenheit and RH for any purposes
 911              		.loc 1 262 20 view .LVU213
 912 01d4 FFF7FEFF 		bl	__aeabi_f2iz
 913              	.LVL73:
ARM GAS  C:\Users\Admin\AppData\Local\Temp\ccgbUHXa.s 			page 31


 914 01d8 2A4B     		ldr	r3, .L60+104
 915 01da 1860     		str	r0, [r3]
 916 01dc 7EE7     		b	.L40
 917              	.L56:
 271:Core/Src/main.c ****           {
 918              		.loc 1 271 11 is_stmt 1 view .LVU214
 271:Core/Src/main.c ****           {
 919              		.loc 1 271 15 is_stmt 0 view .LVU215
 920 01de 2A4B     		ldr	r3, .L60+108
 921 01e0 1B78     		ldrb	r3, [r3]	@ zero_extendqisi2
 271:Core/Src/main.c ****           {
 922              		.loc 1 271 14 view .LVU216
 923 01e2 002B     		cmp	r3, #0
 924 01e4 7FF47EAF 		bne	.L41
 273:Core/Src/main.c ****             log_data("task control\n");
 925              		.loc 1 273 13 is_stmt 1 view .LVU217
 273:Core/Src/main.c ****             log_data("task control\n");
 926              		.loc 1 273 23 is_stmt 0 view .LVU218
 927 01e8 274B     		ldr	r3, .L60+108
 928 01ea 0122     		movs	r2, #1
 929 01ec 1A70     		strb	r2, [r3]
 274:Core/Src/main.c ****             // depend Temp value
 930              		.loc 1 274 13 is_stmt 1 view .LVU219
 931 01ee 2748     		ldr	r0, .L60+112
 932 01f0 FFF7FEFF 		bl	log_data
 933              	.LVL74:
 277:Core/Src/main.c ****             {
 934              		.loc 1 277 13 view .LVU220
 277:Core/Src/main.c ****             {
 935              		.loc 1 277 22 is_stmt 0 view .LVU221
 936 01f4 224B     		ldr	r3, .L60+100
 937 01f6 1868     		ldr	r0, [r3]
 938 01f8 FFF7FEFF 		bl	__aeabi_i2f
 939              	.LVL75:
 277:Core/Src/main.c ****             {
 940              		.loc 1 277 16 view .LVU222
 941 01fc 244B     		ldr	r3, .L60+116
 942 01fe 1968     		ldr	r1, [r3]	@ float
 943 0200 FFF7FEFF 		bl	__aeabi_fcmpgt
 944              	.LVL76:
 945 0204 20B1     		cbz	r0, .L52
 279:Core/Src/main.c ****               // sprintf(rota, "Rota: %d  ", 0);
 946              		.loc 1 279 15 is_stmt 1 view .LVU223
 279:Core/Src/main.c ****               // sprintf(rota, "Rota: %d  ", 0);
 947              		.loc 1 279 26 is_stmt 0 view .LVU224
 948 0206 4FF08043 		mov	r3, #1073741824
 949 020a 1922     		movs	r2, #25
 950 020c 5A63     		str	r2, [r3, #52]
 951 020e 69E7     		b	.L41
 952              	.L52:
 290:Core/Src/main.c ****               // sprintf(rota, "Rota: %d  ", 180);
 953              		.loc 1 290 15 is_stmt 1 view .LVU225
 290:Core/Src/main.c ****               // sprintf(rota, "Rota: %d  ", 180);
 954              		.loc 1 290 26 is_stmt 0 view .LVU226
 955 0210 4FF08043 		mov	r3, #1073741824
 956 0214 7D22     		movs	r2, #125
 957 0216 5A63     		str	r2, [r3, #52]
ARM GAS  C:\Users\Admin\AppData\Local\Temp\ccgbUHXa.s 			page 32


 958 0218 64E7     		b	.L41
 959              	.L61:
 960 021a 00BF     		.align	2
 961              	.L60:
 962 021c 00000000 		.word	htim2
 963 0220 00000000 		.word	htim1
 964 0224 00000000 		.word	Font_11x18
 965 0228 00000000 		.word	.LC2
 966 022c 08000000 		.word	.LC3
 967 0230 10000000 		.word	.LC4
 968 0234 18000000 		.word	.LC5
 969 0238 00000000 		.word	.LANCHOR9
 970 023c 00000000 		.word	htim3
 971 0240 00000000 		.word	.LANCHOR4
 972 0244 00000000 		.word	huart3
 973 0248 00000000 		.word	.LANCHOR0
 974 024c 00000000 		.word	.LANCHOR1
 975 0250 00000000 		.word	.LANCHOR8
 976 0254 00000000 		.word	.LANCHOR7
 977 0258 94000000 		.word	.LC16
 978 025c 00000000 		.word	.LANCHOR6
 979 0260 B8000000 		.word	.LC19
 980 0264 20000000 		.word	.LC6
 981 0268 00000000 		.word	.LANCHOR10
 982 026c 00000000 		.word	.LANCHOR11
 983 0270 00000000 		.word	.LANCHOR12
 984 0274 00000000 		.word	.LANCHOR13
 985 0278 00000000 		.word	.LANCHOR14
 986 027c 00002440 		.word	1076101120
 987 0280 00000000 		.word	.LANCHOR15
 988 0284 00000000 		.word	.LANCHOR16
 989 0288 00000000 		.word	.LANCHOR2
 990 028c 30000000 		.word	.LC7
 991 0290 00000000 		.word	.LANCHOR17
 992              	.L57:
 301:Core/Src/main.c ****           {
 993              		.loc 1 301 11 is_stmt 1 view .LVU227
 301:Core/Src/main.c ****           {
 994              		.loc 1 301 15 is_stmt 0 view .LVU228
 995 0294 7E4B     		ldr	r3, .L62+8
 996 0296 1B78     		ldrb	r3, [r3]	@ zero_extendqisi2
 301:Core/Src/main.c ****           {
 997              		.loc 1 301 14 view .LVU229
 998 0298 002B     		cmp	r3, #0
 999 029a 7FF428AF 		bne	.L39
 303:Core/Src/main.c ****             log_data("task display\n");
 1000              		.loc 1 303 13 is_stmt 1 view .LVU230
 303:Core/Src/main.c ****             log_data("task display\n");
 1001              		.loc 1 303 23 is_stmt 0 view .LVU231
 1002 029e 7C4B     		ldr	r3, .L62+8
 1003 02a0 0122     		movs	r2, #1
 1004 02a2 1A70     		strb	r2, [r3]
 304:Core/Src/main.c ****             sprintf(buf_temp, "Temp: %d C", temp);
 1005              		.loc 1 304 13 is_stmt 1 view .LVU232
 1006 02a4 7B48     		ldr	r0, .L62+12
 1007 02a6 FFF7FEFF 		bl	log_data
 1008              	.LVL77:
ARM GAS  C:\Users\Admin\AppData\Local\Temp\ccgbUHXa.s 			page 33


 305:Core/Src/main.c ****             sprintf(buf_humi, "Humi: %d ", humi);
 1009              		.loc 1 305 13 view .LVU233
 1010 02aa 7B4C     		ldr	r4, .L62+16
 1011 02ac 7B4D     		ldr	r5, .L62+20
 1012 02ae 2268     		ldr	r2, [r4]
 1013 02b0 7B49     		ldr	r1, .L62+24
 1014 02b2 2846     		mov	r0, r5
 1015 02b4 FFF7FEFF 		bl	sprintf
 1016              	.LVL78:
 306:Core/Src/main.c ****             log_data(buf_temp);
 1017              		.loc 1 306 13 view .LVU234
 1018 02b8 7A4E     		ldr	r6, .L62+28
 1019 02ba 7B4B     		ldr	r3, .L62+32
 1020 02bc 1A68     		ldr	r2, [r3]
 1021 02be 7B49     		ldr	r1, .L62+36
 1022 02c0 3046     		mov	r0, r6
 1023 02c2 FFF7FEFF 		bl	sprintf
 1024              	.LVL79:
 307:Core/Src/main.c ****             log_data("\n");
 1025              		.loc 1 307 13 view .LVU235
 1026 02c6 2846     		mov	r0, r5
 1027 02c8 FFF7FEFF 		bl	log_data
 1028              	.LVL80:
 308:Core/Src/main.c ****             log_data(buf_humi);
 1029              		.loc 1 308 13 view .LVU236
 1030 02cc 784D     		ldr	r5, .L62+40
 1031 02ce 2846     		mov	r0, r5
 1032 02d0 FFF7FEFF 		bl	log_data
 1033              	.LVL81:
 309:Core/Src/main.c ****             log_data("\n");
 1034              		.loc 1 309 13 view .LVU237
 1035 02d4 3046     		mov	r0, r6
 1036 02d6 FFF7FEFF 		bl	log_data
 1037              	.LVL82:
 310:Core/Src/main.c ****             if (temp > PC_threshold)
 1038              		.loc 1 310 13 view .LVU238
 1039 02da 2846     		mov	r0, r5
 1040 02dc FFF7FEFF 		bl	log_data
 1041              	.LVL83:
 311:Core/Src/main.c ****             {
 1042              		.loc 1 311 13 view .LVU239
 311:Core/Src/main.c ****             {
 1043              		.loc 1 311 22 is_stmt 0 view .LVU240
 1044 02e0 2068     		ldr	r0, [r4]
 1045 02e2 FFF7FEFF 		bl	__aeabi_i2f
 1046              	.LVL84:
 311:Core/Src/main.c ****             {
 1047              		.loc 1 311 16 view .LVU241
 1048 02e6 734B     		ldr	r3, .L62+44
 1049 02e8 1968     		ldr	r1, [r3]	@ float
 1050 02ea FFF7FEFF 		bl	__aeabi_fcmpgt
 1051              	.LVL85:
 1052 02ee 0028     		cmp	r0, #0
 1053 02f0 46D0     		beq	.L53
 313:Core/Src/main.c ****               log_data(rota);
 1054              		.loc 1 313 15 is_stmt 1 view .LVU242
 1055 02f2 714D     		ldr	r5, .L62+48
ARM GAS  C:\Users\Admin\AppData\Local\Temp\ccgbUHXa.s 			page 34


 1056 02f4 0022     		movs	r2, #0
 1057 02f6 7149     		ldr	r1, .L62+52
 1058 02f8 2846     		mov	r0, r5
 1059 02fa FFF7FEFF 		bl	sprintf
 1060              	.LVL86:
 314:Core/Src/main.c ****               log_data("\n");
 1061              		.loc 1 314 15 view .LVU243
 1062 02fe 2846     		mov	r0, r5
 1063 0300 FFF7FEFF 		bl	log_data
 1064              	.LVL87:
 315:Core/Src/main.c ****               ST7735_WriteString(0, 3 * 10 * 3, rota, Font_11x18, ST7735_GREEN, ST7735_BLACK);
 1065              		.loc 1 315 15 view .LVU244
 1066 0304 6A48     		ldr	r0, .L62+40
 1067 0306 FFF7FEFF 		bl	log_data
 1068              	.LVL88:
 316:Core/Src/main.c ****               ST7735_WriteString(35, 145, "Warnning", Font_7x10, ST7735_WHITE, ST7735_BLACK);
 1069              		.loc 1 316 15 view .LVU245
 1070 030a 6D4B     		ldr	r3, .L62+56
 1071 030c 0024     		movs	r4, #0
 1072 030e 0294     		str	r4, [sp, #8]
 1073 0310 4FF4FC62 		mov	r2, #2016
 1074 0314 0192     		str	r2, [sp, #4]
 1075 0316 5A68     		ldr	r2, [r3, #4]
 1076 0318 0092     		str	r2, [sp]
 1077 031a 1B68     		ldr	r3, [r3]
 1078 031c 2A46     		mov	r2, r5
 1079 031e 5A21     		movs	r1, #90
 1080 0320 2046     		mov	r0, r4
 1081 0322 FFF7FEFF 		bl	ST7735_WriteString
 1082              	.LVL89:
 317:Core/Src/main.c ****             }
 1083              		.loc 1 317 15 view .LVU246
 1084 0326 674B     		ldr	r3, .L62+60
 1085 0328 0294     		str	r4, [sp, #8]
 1086 032a 4FF6FF72 		movw	r2, #65535
 1087 032e 0192     		str	r2, [sp, #4]
 1088 0330 5A68     		ldr	r2, [r3, #4]
 1089 0332 0092     		str	r2, [sp]
 1090 0334 1B68     		ldr	r3, [r3]
 1091 0336 644A     		ldr	r2, .L62+64
 1092 0338 9121     		movs	r1, #145
 1093 033a 2320     		movs	r0, #35
 1094 033c FFF7FEFF 		bl	ST7735_WriteString
 1095              	.LVL90:
 1096              	.L46:
 327:Core/Src/main.c ****             ST7735_WriteString(0, 3 * 10 * 2, strcat(buf_humi, "%"), Font_11x18, ST7735_RED, ST7735
 1097              		.loc 1 327 13 view .LVU247
 1098 0340 5F4D     		ldr	r5, .L62+56
 1099 0342 0024     		movs	r4, #0
 1100 0344 0294     		str	r4, [sp, #8]
 1101 0346 4FF47847 		mov	r7, #63488
 1102 034a 0197     		str	r7, [sp, #4]
 1103 034c 6B68     		ldr	r3, [r5, #4]
 1104 034e 0093     		str	r3, [sp]
 1105 0350 2B68     		ldr	r3, [r5]
 1106 0352 524A     		ldr	r2, .L62+20
 1107 0354 1E21     		movs	r1, #30
ARM GAS  C:\Users\Admin\AppData\Local\Temp\ccgbUHXa.s 			page 35


 1108 0356 2046     		mov	r0, r4
 1109 0358 FFF7FEFF 		bl	ST7735_WriteString
 1110              	.LVL91:
 328:Core/Src/main.c ****           }
 1111              		.loc 1 328 13 view .LVU248
 328:Core/Src/main.c ****           }
 1112              		.loc 1 328 47 is_stmt 0 view .LVU249
 1113 035c 514E     		ldr	r6, .L62+28
 1114 035e 3046     		mov	r0, r6
 1115 0360 FFF7FEFF 		bl	strlen
 1116              	.LVL92:
 1117 0364 594B     		ldr	r3, .L62+68
 1118 0366 1B88     		ldrh	r3, [r3]	@ unaligned
 1119 0368 3352     		strh	r3, [r6, r0]	@ unaligned
 328:Core/Src/main.c ****           }
 1120              		.loc 1 328 13 view .LVU250
 1121 036a 0294     		str	r4, [sp, #8]
 1122 036c 0197     		str	r7, [sp, #4]
 1123 036e 6B68     		ldr	r3, [r5, #4]
 1124 0370 0093     		str	r3, [sp]
 1125 0372 2B68     		ldr	r3, [r5]
 1126 0374 3246     		mov	r2, r6
 1127 0376 3C21     		movs	r1, #60
 1128 0378 2046     		mov	r0, r4
 1129 037a FFF7FEFF 		bl	ST7735_WriteString
 1130              	.LVL93:
 1131 037e B6E6     		b	.L39
 1132              	.L53:
 321:Core/Src/main.c ****               log_data(rota);
 1133              		.loc 1 321 15 is_stmt 1 view .LVU251
 1134 0380 4D4D     		ldr	r5, .L62+48
 1135 0382 B422     		movs	r2, #180
 1136 0384 4D49     		ldr	r1, .L62+52
 1137 0386 2846     		mov	r0, r5
 1138 0388 FFF7FEFF 		bl	sprintf
 1139              	.LVL94:
 322:Core/Src/main.c ****               log_data("\n");
 1140              		.loc 1 322 15 view .LVU252
 1141 038c 2846     		mov	r0, r5
 1142 038e FFF7FEFF 		bl	log_data
 1143              	.LVL95:
 323:Core/Src/main.c ****               ST7735_WriteString(0, 3 * 10 * 3, rota, Font_11x18, ST7735_GREEN, ST7735_BLACK);
 1144              		.loc 1 323 15 view .LVU253
 1145 0392 4748     		ldr	r0, .L62+40
 1146 0394 FFF7FEFF 		bl	log_data
 1147              	.LVL96:
 324:Core/Src/main.c ****               ST7735_WriteString(35, 145, "          ", Font_7x10, ST7735_WHITE, ST7735_BLACK);
 1148              		.loc 1 324 15 view .LVU254
 1149 0398 494B     		ldr	r3, .L62+56
 1150 039a 0024     		movs	r4, #0
 1151 039c 0294     		str	r4, [sp, #8]
 1152 039e 4FF4FC62 		mov	r2, #2016
 1153 03a2 0192     		str	r2, [sp, #4]
 1154 03a4 5A68     		ldr	r2, [r3, #4]
 1155 03a6 0092     		str	r2, [sp]
 1156 03a8 1B68     		ldr	r3, [r3]
 1157 03aa 2A46     		mov	r2, r5
ARM GAS  C:\Users\Admin\AppData\Local\Temp\ccgbUHXa.s 			page 36


 1158 03ac 5A21     		movs	r1, #90
 1159 03ae 2046     		mov	r0, r4
 1160 03b0 FFF7FEFF 		bl	ST7735_WriteString
 1161              	.LVL97:
 325:Core/Src/main.c ****             }
 1162              		.loc 1 325 15 view .LVU255
 1163 03b4 434B     		ldr	r3, .L62+60
 1164 03b6 0294     		str	r4, [sp, #8]
 1165 03b8 4FF6FF72 		movw	r2, #65535
 1166 03bc 0192     		str	r2, [sp, #4]
 1167 03be 5A68     		ldr	r2, [r3, #4]
 1168 03c0 0092     		str	r2, [sp]
 1169 03c2 1B68     		ldr	r3, [r3]
 1170 03c4 424A     		ldr	r2, .L62+72
 1171 03c6 9121     		movs	r1, #145
 1172 03c8 2320     		movs	r0, #35
 1173 03ca FFF7FEFF 		bl	ST7735_WriteString
 1174              	.LVL98:
 1175 03ce B7E7     		b	.L46
 1176              	.L58:
 340:Core/Src/main.c ****             // control Servo
 1177              		.loc 1 340 13 view .LVU256
 1178 03d0 404C     		ldr	r4, .L62+76
 1179 03d2 2246     		mov	r2, r4
 1180 03d4 4049     		ldr	r1, .L62+80
 1181 03d6 4148     		ldr	r0, .L62+84
 1182 03d8 FFF7FEFF 		bl	sscanf
 1183              	.LVL99:
 342:Core/Src/main.c ****             sprintf(rota, "Rota: %d  ", PC_rota);
 1184              		.loc 1 342 13 view .LVU257
 342:Core/Src/main.c ****             sprintf(rota, "Rota: %d  ", PC_rota);
 1185              		.loc 1 342 41 is_stmt 0 view .LVU258
 1186 03dc 2568     		ldr	r5, [r4]
 342:Core/Src/main.c ****             sprintf(rota, "Rota: %d  ", PC_rota);
 1187              		.loc 1 342 47 view .LVU259
 1188 03de 05F12D00 		add	r0, r5, #45
 1189 03e2 FFF7FEFF 		bl	__aeabi_i2d
 1190              	.LVL100:
 1191 03e6 28A3     		adr	r3, .L62
 1192 03e8 D3E90023 		ldrd	r2, [r3]
 1193 03ec FFF7FEFF 		bl	__aeabi_ddiv
 1194              	.LVL101:
 342:Core/Src/main.c ****             sprintf(rota, "Rota: %d  ", PC_rota);
 1195              		.loc 1 342 26 view .LVU260
 1196 03f0 FFF7FEFF 		bl	__aeabi_d2iz
 1197              	.LVL102:
 342:Core/Src/main.c ****             sprintf(rota, "Rota: %d  ", PC_rota);
 1198              		.loc 1 342 24 view .LVU261
 1199 03f4 4FF08043 		mov	r3, #1073741824
 1200 03f8 5863     		str	r0, [r3, #52]
 343:Core/Src/main.c ****             log_data("\nPC control ");
 1201              		.loc 1 343 13 is_stmt 1 view .LVU262
 1202 03fa 2F4C     		ldr	r4, .L62+48
 1203 03fc 2A46     		mov	r2, r5
 1204 03fe 2F49     		ldr	r1, .L62+52
 1205 0400 2046     		mov	r0, r4
 1206 0402 FFF7FEFF 		bl	sprintf
ARM GAS  C:\Users\Admin\AppData\Local\Temp\ccgbUHXa.s 			page 37


 1207              	.LVL103:
 344:Core/Src/main.c ****             log_data(rota);
 1208              		.loc 1 344 13 view .LVU263
 1209 0406 3648     		ldr	r0, .L62+88
 1210 0408 FFF7FEFF 		bl	log_data
 1211              	.LVL104:
 345:Core/Src/main.c ****             ST7735_WriteString(0, 3 * 10 * 3, rota, Font_11x18, ST7735_GREEN, ST7735_BLACK);
 1212              		.loc 1 345 13 view .LVU264
 1213 040c 2046     		mov	r0, r4
 1214 040e FFF7FEFF 		bl	log_data
 1215              	.LVL105:
 346:Core/Src/main.c ****           }
 1216              		.loc 1 346 13 view .LVU265
 1217 0412 2B4B     		ldr	r3, .L62+56
 1218 0414 0020     		movs	r0, #0
 1219 0416 0290     		str	r0, [sp, #8]
 1220 0418 4FF4FC62 		mov	r2, #2016
 1221 041c 0192     		str	r2, [sp, #4]
 1222 041e 5A68     		ldr	r2, [r3, #4]
 1223 0420 0092     		str	r2, [sp]
 1224 0422 1B68     		ldr	r3, [r3]
 1225 0424 2246     		mov	r2, r4
 1226 0426 5A21     		movs	r1, #90
 1227 0428 FFF7FEFF 		bl	ST7735_WriteString
 1228              	.LVL106:
 1229 042c 77E6     		b	.L47
 1230              	.L59:
 1231              	.LBB6:
 350:Core/Src/main.c ****             // Parse string
 1232              		.loc 1 350 13 view .LVU266
 350:Core/Src/main.c ****             // Parse string
 1233              		.loc 1 350 18 is_stmt 0 view .LVU267
 1234 042e 2D4B     		ldr	r3, .L62+92
 1235 0430 04AC     		add	r4, sp, #16
 1236 0432 93E80300 		ldm	r3, {r0, r1}
 1237 0436 84E80300 		stm	r4, {r0, r1}
 352:Core/Src/main.c ****             //log_data(str_thres);
 1238              		.loc 1 352 13 is_stmt 1 view .LVU268
 1239 043a 2B4D     		ldr	r5, .L62+96
 1240 043c 2B46     		mov	r3, r5
 1241 043e 2B4A     		ldr	r2, .L62+100
 1242 0440 2B49     		ldr	r1, .L62+104
 1243 0442 2648     		ldr	r0, .L62+84
 1244 0444 FFF7FEFF 		bl	sscanf
 1245              	.LVL107:
 356:Core/Src/main.c ****             strcat(str_buf, str_thres);
 1246              		.loc 1 356 13 view .LVU269
 356:Core/Src/main.c ****             strcat(str_buf, str_thres);
 1247              		.loc 1 356 28 is_stmt 0 view .LVU270
 1248 0448 2846     		mov	r0, r5
 1249 044a FFF7FEFF 		bl	atof
 1250              	.LVL108:
 1251 044e FFF7FEFF 		bl	__aeabi_d2f
 1252              	.LVL109:
 356:Core/Src/main.c ****             strcat(str_buf, str_thres);
 1253              		.loc 1 356 26 view .LVU271
 1254 0452 184B     		ldr	r3, .L62+44
ARM GAS  C:\Users\Admin\AppData\Local\Temp\ccgbUHXa.s 			page 38


 1255 0454 1860     		str	r0, [r3]	@ float
 357:Core/Src/main.c ****             log_data("\nPC set Threshold: ");log_data(str_thres);
 1256              		.loc 1 357 13 is_stmt 1 view .LVU272
 1257 0456 2946     		mov	r1, r5
 1258 0458 2046     		mov	r0, r4
 1259 045a FFF7FEFF 		bl	strcat
 1260              	.LVL110:
 358:Core/Src/main.c ****             //log_data(str_buf);
 1261              		.loc 1 358 13 view .LVU273
 1262 045e 2548     		ldr	r0, .L62+108
 1263 0460 FFF7FEFF 		bl	log_data
 1264              	.LVL111:
 358:Core/Src/main.c ****             //log_data(str_buf);
 1265              		.loc 1 358 46 view .LVU274
 1266 0464 2846     		mov	r0, r5
 1267 0466 FFF7FEFF 		bl	log_data
 1268              	.LVL112:
 364:Core/Src/main.c ****           }
 1269              		.loc 1 364 13 view .LVU275
 1270 046a 154B     		ldr	r3, .L62+56
 1271 046c 0020     		movs	r0, #0
 1272 046e 0290     		str	r0, [sp, #8]
 1273 0470 4FF4FC62 		mov	r2, #2016
 1274 0474 0192     		str	r2, [sp, #4]
 1275 0476 5A68     		ldr	r2, [r3, #4]
 1276 0478 0092     		str	r2, [sp]
 1277 047a 1B68     		ldr	r3, [r3]
 1278 047c 2246     		mov	r2, r4
 1279 047e 7821     		movs	r1, #120
 1280 0480 FFF7FEFF 		bl	ST7735_WriteString
 1281              	.LVL113:
 1282 0484 53E6     		b	.L48
 1283              	.L63:
 1284 0486 00BF     		.align	3
 1285              	.L62:
 1286 0488 CDCCCCCC 		.word	-858993459
 1287 048c CCCCFC3F 		.word	1073532108
 1288 0490 00000000 		.word	.LANCHOR3
 1289 0494 40000000 		.word	.LC8
 1290 0498 00000000 		.word	.LANCHOR15
 1291 049c 00000000 		.word	.LANCHOR18
 1292 04a0 50000000 		.word	.LC9
 1293 04a4 00000000 		.word	.LANCHOR19
 1294 04a8 00000000 		.word	.LANCHOR16
 1295 04ac 5C000000 		.word	.LC10
 1296 04b0 68000000 		.word	.LC11
 1297 04b4 00000000 		.word	.LANCHOR17
 1298 04b8 00000000 		.word	.LANCHOR20
 1299 04bc 6C000000 		.word	.LC12
 1300 04c0 00000000 		.word	Font_11x18
 1301 04c4 00000000 		.word	Font_7x10
 1302 04c8 78000000 		.word	.LC13
 1303 04cc 90000000 		.word	.LC15
 1304 04d0 84000000 		.word	.LC14
 1305 04d4 00000000 		.word	.LANCHOR21
 1306 04d8 9C000000 		.word	.LC17
 1307 04dc 00000000 		.word	.LANCHOR6
ARM GAS  C:\Users\Admin\AppData\Local\Temp\ccgbUHXa.s 			page 39


 1308 04e0 A8000000 		.word	.LC18
 1309 04e4 E0000000 		.word	.LC20
 1310 04e8 00000000 		.word	.LANCHOR22
 1311 04ec 00000000 		.word	.LANCHOR23
 1312 04f0 C4000000 		.word	.LC21
 1313 04f4 CC000000 		.word	.LC22
 1314              	.LBE6:
 1315              		.cfi_endproc
 1316              	.LFE72:
 1318              		.global	thres_tring
 1319              		.global	RH
 1320              		.global	tFahrenheit
 1321              		.global	tCelsius
 1322              		.global	SUM
 1323              		.global	TCD
 1324              		.global	TCI
 1325              		.global	RHD
 1326              		.global	RHI
 1327              		.global	humi
 1328              		.global	temp
 1329              		.global	PC_threshold
 1330              		.global	PC_rota
 1331              		.global	perform_d
 1332              		.global	perform_c
 1333              		.global	perform_s
 1334              		.global	Rx_complete
 1335              		.global	Rx_index
 1336              		.global	buffer_data
 1337              		.global	Rx_data
 1338              		.global	Mode
 1339              		.global	Type_task
 1340              		.global	buf_humi
 1341              		.global	buf_temp
 1342              		.global	angle
 1343              		.global	str_thres
 1344              		.global	label_thres
 1345              		.global	threshold
 1346              		.global	rota
 1347              		.global	count
 1348              		.section	.bss.PC_rota,"aw",%nobits
 1349              		.align	2
 1350              		.set	.LANCHOR21,. + 0
 1353              	PC_rota:
 1354 0000 00000000 		.space	4
 1355              		.section	.bss.RH,"aw",%nobits
 1356              		.align	2
 1359              	RH:
 1360 0000 00000000 		.space	4
 1361              		.section	.bss.RHD,"aw",%nobits
 1362              		.set	.LANCHOR11,. + 0
 1365              	RHD:
 1366 0000 00       		.space	1
 1367              		.section	.bss.RHI,"aw",%nobits
 1368              		.set	.LANCHOR10,. + 0
 1371              	RHI:
 1372 0000 00       		.space	1
 1373              		.section	.bss.Rx_complete,"aw",%nobits
ARM GAS  C:\Users\Admin\AppData\Local\Temp\ccgbUHXa.s 			page 40


 1374              		.set	.LANCHOR7,. + 0
 1377              	Rx_complete:
 1378 0000 00       		.space	1
 1379              		.section	.bss.Rx_data,"aw",%nobits
 1380              		.set	.LANCHOR4,. + 0
 1383              	Rx_data:
 1384 0000 00       		.space	1
 1385              		.section	.bss.Rx_index,"aw",%nobits
 1386              		.align	2
 1387              		.set	.LANCHOR5,. + 0
 1390              	Rx_index:
 1391 0000 00000000 		.space	4
 1392              		.section	.bss.SUM,"aw",%nobits
 1393              		.set	.LANCHOR14,. + 0
 1396              	SUM:
 1397 0000 00       		.space	1
 1398              		.section	.bss.TCD,"aw",%nobits
 1399              		.set	.LANCHOR13,. + 0
 1402              	TCD:
 1403 0000 00       		.space	1
 1404              		.section	.bss.TCI,"aw",%nobits
 1405              		.set	.LANCHOR12,. + 0
 1408              	TCI:
 1409 0000 00       		.space	1
 1410              		.section	.bss.Type_task,"aw",%nobits
 1411              		.align	2
 1412              		.set	.LANCHOR0,. + 0
 1415              	Type_task:
 1416 0000 00000000 		.space	4
 1417              		.section	.bss.angle,"aw",%nobits
 1418              		.align	2
 1421              	angle:
 1422 0000 00000000 		.space	4
 1423              		.section	.bss.buf_humi,"aw",%nobits
 1424              		.align	2
 1425              		.set	.LANCHOR19,. + 0
 1428              	buf_humi:
 1429 0000 00000000 		.space	20
 1429      00000000 
 1429      00000000 
 1429      00000000 
 1429      00000000 
 1430              		.section	.bss.buf_temp,"aw",%nobits
 1431              		.align	2
 1432              		.set	.LANCHOR18,. + 0
 1435              	buf_temp:
 1436 0000 00000000 		.space	20
 1436      00000000 
 1436      00000000 
 1436      00000000 
 1436      00000000 
 1437              		.section	.bss.buffer_data,"aw",%nobits
 1438              		.align	2
 1439              		.set	.LANCHOR6,. + 0
 1442              	buffer_data:
 1443 0000 00000000 		.space	50
 1443      00000000 
ARM GAS  C:\Users\Admin\AppData\Local\Temp\ccgbUHXa.s 			page 41


 1443      00000000 
 1443      00000000 
 1443      00000000 
 1444              		.section	.bss.humi,"aw",%nobits
 1445              		.align	2
 1446              		.set	.LANCHOR16,. + 0
 1449              	humi:
 1450 0000 00000000 		.space	4
 1451              		.section	.bss.label_thres,"aw",%nobits
 1452              		.align	2
 1453              		.set	.LANCHOR23,. + 0
 1456              	label_thres:
 1457 0000 00000000 		.space	10
 1457      00000000 
 1457      0000
 1458              		.section	.bss.perform_c,"aw",%nobits
 1459              		.set	.LANCHOR2,. + 0
 1462              	perform_c:
 1463 0000 00       		.space	1
 1464              		.section	.bss.perform_d,"aw",%nobits
 1465              		.set	.LANCHOR3,. + 0
 1468              	perform_d:
 1469 0000 00       		.space	1
 1470              		.section	.bss.perform_s,"aw",%nobits
 1471              		.set	.LANCHOR1,. + 0
 1474              	perform_s:
 1475 0000 00       		.space	1
 1476              		.section	.bss.rota,"aw",%nobits
 1477              		.align	2
 1478              		.set	.LANCHOR20,. + 0
 1481              	rota:
 1482 0000 00000000 		.space	20
 1482      00000000 
 1482      00000000 
 1482      00000000 
 1482      00000000 
 1483              		.section	.bss.str_thres,"aw",%nobits
 1484              		.align	2
 1485              		.set	.LANCHOR22,. + 0
 1488              	str_thres:
 1489 0000 00000000 		.space	5
 1489      00
 1490              		.section	.bss.tCelsius,"aw",%nobits
 1491              		.align	2
 1494              	tCelsius:
 1495 0000 00000000 		.space	4
 1496              		.section	.bss.tFahrenheit,"aw",%nobits
 1497              		.align	2
 1500              	tFahrenheit:
 1501 0000 00000000 		.space	4
 1502              		.section	.bss.temp,"aw",%nobits
 1503              		.align	2
 1504              		.set	.LANCHOR15,. + 0
 1507              	temp:
 1508 0000 00000000 		.space	4
 1509              		.section	.bss.threshold,"aw",%nobits
 1510              		.align	2
ARM GAS  C:\Users\Admin\AppData\Local\Temp\ccgbUHXa.s 			page 42


 1513              	threshold:
 1514 0000 00000000 		.space	20
 1514      00000000 
 1514      00000000 
 1514      00000000 
 1514      00000000 
 1515              		.section	.data.Mode,"aw"
 1516              		.align	2
 1517              		.set	.LANCHOR8,. + 0
 1520              	Mode:
 1521 0000 03000000 		.word	3
 1522              		.section	.data.PC_threshold,"aw"
 1523              		.align	2
 1524              		.set	.LANCHOR17,. + 0
 1527              	PC_threshold:
 1528 0000 0000F041 		.word	1106247680
 1529              		.section	.data.count,"aw"
 1530              		.align	2
 1533              	count:
 1534 0000 19000000 		.word	25
 1535              		.section	.data.thres_tring,"aw"
 1536              		.align	2
 1537              		.set	.LANCHOR9,. + 0
 1540              	thres_tring:
 1541 0000 54687265 		.ascii	"Thres: 30\000"
 1541      733A2033 
 1541      3000
 1542              		.text
 1543              	.Letext0:
 1544              		.file 3 "d:\\10 2021.10\\arm-none-eabi\\include\\machine\\_default_types.h"
 1545              		.file 4 "d:\\10 2021.10\\arm-none-eabi\\include\\sys\\_stdint.h"
 1546              		.file 5 "Drivers/CMSIS/Device/ST/STM32F1xx/Include/stm32f103xb.h"
 1547              		.file 6 "Drivers/STM32F1xx_HAL_Driver/Inc/stm32f1xx_hal_def.h"
 1548              		.file 7 "Drivers/STM32F1xx_HAL_Driver/Inc/stm32f1xx_hal_rcc.h"
 1549              		.file 8 "Drivers/STM32F1xx_HAL_Driver/Inc/stm32f1xx_hal_rcc_ex.h"
 1550              		.file 9 "Drivers/STM32F1xx_HAL_Driver/Inc/stm32f1xx_hal_dma.h"
 1551              		.file 10 "Drivers/STM32F1xx_HAL_Driver/Inc/stm32f1xx_hal_tim.h"
 1552              		.file 11 "Drivers/STM32F1xx_HAL_Driver/Inc/stm32f1xx_hal_uart.h"
 1553              		.file 12 "Core/Inc/tim.h"
 1554              		.file 13 "Core/Inc/usart.h"
 1555              		.file 14 "Core/Inc/fonts.h"
 1556              		.file 15 "Core/Inc/st7735.h"
 1557              		.file 16 "d:\\10 2021.10\\arm-none-eabi\\include\\stdio.h"
 1558              		.file 17 "d:\\10 2021.10\\arm-none-eabi\\include\\stdlib.h"
 1559              		.file 18 "d:\\10 2021.10\\arm-none-eabi\\include\\string.h"
 1560              		.file 19 "Drivers/STM32F1xx_HAL_Driver/Inc/stm32f1xx_hal.h"
 1561              		.file 20 "Core/Inc/gpio.h"
 1562              		.file 21 "Core/Inc/spi.h"
 1563              		.file 22 "Core/Inc/dht22.h"
 1564              		.file 23 "<built-in>"
ARM GAS  C:\Users\Admin\AppData\Local\Temp\ccgbUHXa.s 			page 43

