ARM GAS  C:\Users\Admin\AppData\Local\Temp\ccCv8fv6.s 			page 1


   1              		.cpu cortex-m3
   2              		.arch armv7-m
   3              		.fpu softvfp
   4              		.eabi_attribute 20, 1
   5              		.eabi_attribute 21, 1
   6              		.eabi_attribute 23, 3
   7              		.eabi_attribute 24, 1
   8              		.eabi_attribute 25, 1
   9              		.eabi_attribute 26, 1
  10              		.eabi_attribute 30, 1
  11              		.eabi_attribute 34, 1
  12              		.eabi_attribute 18, 4
  13              		.file	"adc.c"
  14              		.text
  15              	.Ltext0:
  16              		.cfi_sections	.debug_frame
  17              		.section	.text.MX_ADC1_Init,"ax",%progbits
  18              		.align	1
  19              		.global	MX_ADC1_Init
  20              		.syntax unified
  21              		.thumb
  22              		.thumb_func
  24              	MX_ADC1_Init:
  25              	.LFB65:
  26              		.file 1 "Core/Src/adc.c"
   1:Core/Src/adc.c **** /* USER CODE BEGIN Header */
   2:Core/Src/adc.c **** /**
   3:Core/Src/adc.c ****   ******************************************************************************
   4:Core/Src/adc.c ****   * @file    adc.c
   5:Core/Src/adc.c ****   * @brief   This file provides code for the configuration
   6:Core/Src/adc.c ****   *          of the ADC instances.
   7:Core/Src/adc.c ****   ******************************************************************************
   8:Core/Src/adc.c ****   * @attention
   9:Core/Src/adc.c ****   *
  10:Core/Src/adc.c ****   * Copyright (c) 2022 STMicroelectronics.
  11:Core/Src/adc.c ****   * All rights reserved.
  12:Core/Src/adc.c ****   *
  13:Core/Src/adc.c ****   * This software is licensed under terms that can be found in the LICENSE file
  14:Core/Src/adc.c ****   * in the root directory of this software component.
  15:Core/Src/adc.c ****   * If no LICENSE file comes with this software, it is provided AS-IS.
  16:Core/Src/adc.c ****   *
  17:Core/Src/adc.c ****   ******************************************************************************
  18:Core/Src/adc.c ****   */
  19:Core/Src/adc.c **** /* USER CODE END Header */
  20:Core/Src/adc.c **** /* Includes ------------------------------------------------------------------*/
  21:Core/Src/adc.c **** #include "adc.h"
  22:Core/Src/adc.c **** 
  23:Core/Src/adc.c **** /* USER CODE BEGIN 0 */
  24:Core/Src/adc.c **** 
  25:Core/Src/adc.c **** /* USER CODE END 0 */
  26:Core/Src/adc.c **** 
  27:Core/Src/adc.c **** ADC_HandleTypeDef hadc1;
  28:Core/Src/adc.c **** DMA_HandleTypeDef hdma_adc1;
  29:Core/Src/adc.c **** 
  30:Core/Src/adc.c **** /* ADC1 init function */
  31:Core/Src/adc.c **** void MX_ADC1_Init(void)
  32:Core/Src/adc.c **** {
ARM GAS  C:\Users\Admin\AppData\Local\Temp\ccCv8fv6.s 			page 2


  27              		.loc 1 32 1 view -0
  28              		.cfi_startproc
  29              		@ args = 0, pretend = 0, frame = 16
  30              		@ frame_needed = 0, uses_anonymous_args = 0
  31 0000 00B5     		push	{lr}
  32              	.LCFI0:
  33              		.cfi_def_cfa_offset 4
  34              		.cfi_offset 14, -4
  35 0002 85B0     		sub	sp, sp, #20
  36              	.LCFI1:
  37              		.cfi_def_cfa_offset 24
  33:Core/Src/adc.c **** 
  34:Core/Src/adc.c ****   /* USER CODE BEGIN ADC1_Init 0 */
  35:Core/Src/adc.c **** 
  36:Core/Src/adc.c ****   /* USER CODE END ADC1_Init 0 */
  37:Core/Src/adc.c **** 
  38:Core/Src/adc.c ****   ADC_ChannelConfTypeDef sConfig = {0};
  38              		.loc 1 38 3 view .LVU1
  39              		.loc 1 38 26 is_stmt 0 view .LVU2
  40 0004 0023     		movs	r3, #0
  41 0006 0193     		str	r3, [sp, #4]
  42 0008 0293     		str	r3, [sp, #8]
  43 000a 0393     		str	r3, [sp, #12]
  39:Core/Src/adc.c **** 
  40:Core/Src/adc.c ****   /* USER CODE BEGIN ADC1_Init 1 */
  41:Core/Src/adc.c **** 
  42:Core/Src/adc.c ****   /* USER CODE END ADC1_Init 1 */
  43:Core/Src/adc.c **** 
  44:Core/Src/adc.c ****   /** Common config
  45:Core/Src/adc.c ****   */
  46:Core/Src/adc.c ****   hadc1.Instance = ADC1;
  44              		.loc 1 46 3 is_stmt 1 view .LVU3
  45              		.loc 1 46 18 is_stmt 0 view .LVU4
  46 000c 1E48     		ldr	r0, .L11
  47 000e 1F4A     		ldr	r2, .L11+4
  48 0010 0260     		str	r2, [r0]
  47:Core/Src/adc.c ****   hadc1.Init.ScanConvMode = ADC_SCAN_ENABLE;
  49              		.loc 1 47 3 is_stmt 1 view .LVU5
  50              		.loc 1 47 27 is_stmt 0 view .LVU6
  51 0012 4FF48072 		mov	r2, #256
  52 0016 8260     		str	r2, [r0, #8]
  48:Core/Src/adc.c ****   hadc1.Init.ContinuousConvMode = DISABLE;
  53              		.loc 1 48 3 is_stmt 1 view .LVU7
  54              		.loc 1 48 33 is_stmt 0 view .LVU8
  55 0018 0373     		strb	r3, [r0, #12]
  49:Core/Src/adc.c ****   hadc1.Init.DiscontinuousConvMode = DISABLE;
  56              		.loc 1 49 3 is_stmt 1 view .LVU9
  57              		.loc 1 49 36 is_stmt 0 view .LVU10
  58 001a 0375     		strb	r3, [r0, #20]
  50:Core/Src/adc.c ****   hadc1.Init.ExternalTrigConv = ADC_SOFTWARE_START;
  59              		.loc 1 50 3 is_stmt 1 view .LVU11
  60              		.loc 1 50 31 is_stmt 0 view .LVU12
  61 001c 4FF46022 		mov	r2, #917504
  62 0020 C261     		str	r2, [r0, #28]
  51:Core/Src/adc.c ****   hadc1.Init.DataAlign = ADC_DATAALIGN_RIGHT;
  63              		.loc 1 51 3 is_stmt 1 view .LVU13
  64              		.loc 1 51 24 is_stmt 0 view .LVU14
ARM GAS  C:\Users\Admin\AppData\Local\Temp\ccCv8fv6.s 			page 3


  65 0022 4360     		str	r3, [r0, #4]
  52:Core/Src/adc.c ****   hadc1.Init.NbrOfConversion = 3;
  66              		.loc 1 52 3 is_stmt 1 view .LVU15
  67              		.loc 1 52 30 is_stmt 0 view .LVU16
  68 0024 0323     		movs	r3, #3
  69 0026 0361     		str	r3, [r0, #16]
  53:Core/Src/adc.c ****   if (HAL_ADC_Init(&hadc1) != HAL_OK)
  70              		.loc 1 53 3 is_stmt 1 view .LVU17
  71              		.loc 1 53 7 is_stmt 0 view .LVU18
  72 0028 FFF7FEFF 		bl	HAL_ADC_Init
  73              	.LVL0:
  74              		.loc 1 53 6 view .LVU19
  75 002c F8B9     		cbnz	r0, .L7
  76              	.L2:
  54:Core/Src/adc.c ****   {
  55:Core/Src/adc.c ****     Error_Handler();
  56:Core/Src/adc.c ****   }
  57:Core/Src/adc.c **** 
  58:Core/Src/adc.c ****   /** Configure Regular Channel
  59:Core/Src/adc.c ****   */
  60:Core/Src/adc.c ****   sConfig.Channel = ADC_CHANNEL_0;
  77              		.loc 1 60 3 is_stmt 1 view .LVU20
  78              		.loc 1 60 19 is_stmt 0 view .LVU21
  79 002e 0023     		movs	r3, #0
  80 0030 0193     		str	r3, [sp, #4]
  61:Core/Src/adc.c ****   sConfig.Rank = ADC_REGULAR_RANK_1;
  81              		.loc 1 61 3 is_stmt 1 view .LVU22
  82              		.loc 1 61 16 is_stmt 0 view .LVU23
  83 0032 0123     		movs	r3, #1
  84 0034 0293     		str	r3, [sp, #8]
  62:Core/Src/adc.c ****   sConfig.SamplingTime = ADC_SAMPLETIME_28CYCLES_5;
  85              		.loc 1 62 3 is_stmt 1 view .LVU24
  86              		.loc 1 62 24 is_stmt 0 view .LVU25
  87 0036 0323     		movs	r3, #3
  88 0038 0393     		str	r3, [sp, #12]
  63:Core/Src/adc.c ****   if (HAL_ADC_ConfigChannel(&hadc1, &sConfig) != HAL_OK)
  89              		.loc 1 63 3 is_stmt 1 view .LVU26
  90              		.loc 1 63 7 is_stmt 0 view .LVU27
  91 003a 01A9     		add	r1, sp, #4
  92 003c 1248     		ldr	r0, .L11
  93 003e FFF7FEFF 		bl	HAL_ADC_ConfigChannel
  94              	.LVL1:
  95              		.loc 1 63 6 view .LVU28
  96 0042 B8B9     		cbnz	r0, .L8
  97              	.L3:
  64:Core/Src/adc.c ****   {
  65:Core/Src/adc.c ****     Error_Handler();
  66:Core/Src/adc.c ****   }
  67:Core/Src/adc.c **** 
  68:Core/Src/adc.c ****   /** Configure Regular Channel
  69:Core/Src/adc.c ****   */
  70:Core/Src/adc.c ****   sConfig.Channel = ADC_CHANNEL_1;
  98              		.loc 1 70 3 is_stmt 1 view .LVU29
  99              		.loc 1 70 19 is_stmt 0 view .LVU30
 100 0044 0123     		movs	r3, #1
 101 0046 0193     		str	r3, [sp, #4]
  71:Core/Src/adc.c ****   sConfig.Rank = ADC_REGULAR_RANK_2;
ARM GAS  C:\Users\Admin\AppData\Local\Temp\ccCv8fv6.s 			page 4


 102              		.loc 1 71 3 is_stmt 1 view .LVU31
 103              		.loc 1 71 16 is_stmt 0 view .LVU32
 104 0048 0223     		movs	r3, #2
 105 004a 0293     		str	r3, [sp, #8]
  72:Core/Src/adc.c ****   if (HAL_ADC_ConfigChannel(&hadc1, &sConfig) != HAL_OK)
 106              		.loc 1 72 3 is_stmt 1 view .LVU33
 107              		.loc 1 72 7 is_stmt 0 view .LVU34
 108 004c 01A9     		add	r1, sp, #4
 109 004e 0E48     		ldr	r0, .L11
 110 0050 FFF7FEFF 		bl	HAL_ADC_ConfigChannel
 111              	.LVL2:
 112              		.loc 1 72 6 view .LVU35
 113 0054 88B9     		cbnz	r0, .L9
 114              	.L4:
  73:Core/Src/adc.c ****   {
  74:Core/Src/adc.c ****     Error_Handler();
  75:Core/Src/adc.c ****   }
  76:Core/Src/adc.c **** 
  77:Core/Src/adc.c ****   /** Configure Regular Channel
  78:Core/Src/adc.c ****   */
  79:Core/Src/adc.c ****   sConfig.Channel = ADC_CHANNEL_2;
 115              		.loc 1 79 3 is_stmt 1 view .LVU36
 116              		.loc 1 79 19 is_stmt 0 view .LVU37
 117 0056 0223     		movs	r3, #2
 118 0058 0193     		str	r3, [sp, #4]
  80:Core/Src/adc.c ****   sConfig.Rank = ADC_REGULAR_RANK_3;
 119              		.loc 1 80 3 is_stmt 1 view .LVU38
 120              		.loc 1 80 16 is_stmt 0 view .LVU39
 121 005a 0323     		movs	r3, #3
 122 005c 0293     		str	r3, [sp, #8]
  81:Core/Src/adc.c ****   if (HAL_ADC_ConfigChannel(&hadc1, &sConfig) != HAL_OK)
 123              		.loc 1 81 3 is_stmt 1 view .LVU40
 124              		.loc 1 81 7 is_stmt 0 view .LVU41
 125 005e 01A9     		add	r1, sp, #4
 126 0060 0948     		ldr	r0, .L11
 127 0062 FFF7FEFF 		bl	HAL_ADC_ConfigChannel
 128              	.LVL3:
 129              		.loc 1 81 6 view .LVU42
 130 0066 58B9     		cbnz	r0, .L10
 131              	.L1:
  82:Core/Src/adc.c ****   {
  83:Core/Src/adc.c ****     Error_Handler();
  84:Core/Src/adc.c ****   }
  85:Core/Src/adc.c ****   /* USER CODE BEGIN ADC1_Init 2 */
  86:Core/Src/adc.c **** 
  87:Core/Src/adc.c ****   /* USER CODE END ADC1_Init 2 */
  88:Core/Src/adc.c **** 
  89:Core/Src/adc.c **** }
 132              		.loc 1 89 1 view .LVU43
 133 0068 05B0     		add	sp, sp, #20
 134              	.LCFI2:
 135              		.cfi_remember_state
 136              		.cfi_def_cfa_offset 4
 137              		@ sp needed
 138 006a 5DF804FB 		ldr	pc, [sp], #4
 139              	.L7:
 140              	.LCFI3:
ARM GAS  C:\Users\Admin\AppData\Local\Temp\ccCv8fv6.s 			page 5


 141              		.cfi_restore_state
  55:Core/Src/adc.c ****   }
 142              		.loc 1 55 5 is_stmt 1 view .LVU44
 143 006e FFF7FEFF 		bl	Error_Handler
 144              	.LVL4:
 145 0072 DCE7     		b	.L2
 146              	.L8:
  65:Core/Src/adc.c ****   }
 147              		.loc 1 65 5 view .LVU45
 148 0074 FFF7FEFF 		bl	Error_Handler
 149              	.LVL5:
 150 0078 E4E7     		b	.L3
 151              	.L9:
  74:Core/Src/adc.c ****   }
 152              		.loc 1 74 5 view .LVU46
 153 007a FFF7FEFF 		bl	Error_Handler
 154              	.LVL6:
 155 007e EAE7     		b	.L4
 156              	.L10:
  83:Core/Src/adc.c ****   }
 157              		.loc 1 83 5 view .LVU47
 158 0080 FFF7FEFF 		bl	Error_Handler
 159              	.LVL7:
 160              		.loc 1 89 1 is_stmt 0 view .LVU48
 161 0084 F0E7     		b	.L1
 162              	.L12:
 163 0086 00BF     		.align	2
 164              	.L11:
 165 0088 00000000 		.word	.LANCHOR0
 166 008c 00240140 		.word	1073816576
 167              		.cfi_endproc
 168              	.LFE65:
 170              		.section	.text.HAL_ADC_MspInit,"ax",%progbits
 171              		.align	1
 172              		.global	HAL_ADC_MspInit
 173              		.syntax unified
 174              		.thumb
 175              		.thumb_func
 177              	HAL_ADC_MspInit:
 178              	.LVL8:
 179              	.LFB66:
  90:Core/Src/adc.c **** 
  91:Core/Src/adc.c **** void HAL_ADC_MspInit(ADC_HandleTypeDef* adcHandle)
  92:Core/Src/adc.c **** {
 180              		.loc 1 92 1 is_stmt 1 view -0
 181              		.cfi_startproc
 182              		@ args = 0, pretend = 0, frame = 24
 183              		@ frame_needed = 0, uses_anonymous_args = 0
 184              		.loc 1 92 1 is_stmt 0 view .LVU50
 185 0000 10B5     		push	{r4, lr}
 186              	.LCFI4:
 187              		.cfi_def_cfa_offset 8
 188              		.cfi_offset 4, -8
 189              		.cfi_offset 14, -4
 190 0002 86B0     		sub	sp, sp, #24
 191              	.LCFI5:
 192              		.cfi_def_cfa_offset 32
ARM GAS  C:\Users\Admin\AppData\Local\Temp\ccCv8fv6.s 			page 6


  93:Core/Src/adc.c **** 
  94:Core/Src/adc.c ****   GPIO_InitTypeDef GPIO_InitStruct = {0};
 193              		.loc 1 94 3 is_stmt 1 view .LVU51
 194              		.loc 1 94 20 is_stmt 0 view .LVU52
 195 0004 0023     		movs	r3, #0
 196 0006 0293     		str	r3, [sp, #8]
 197 0008 0393     		str	r3, [sp, #12]
 198 000a 0493     		str	r3, [sp, #16]
 199 000c 0593     		str	r3, [sp, #20]
  95:Core/Src/adc.c ****   if(adcHandle->Instance==ADC1)
 200              		.loc 1 95 3 is_stmt 1 view .LVU53
 201              		.loc 1 95 15 is_stmt 0 view .LVU54
 202 000e 0268     		ldr	r2, [r0]
 203              		.loc 1 95 5 view .LVU55
 204 0010 1F4B     		ldr	r3, .L19
 205 0012 9A42     		cmp	r2, r3
 206 0014 01D0     		beq	.L17
 207              	.LVL9:
 208              	.L13:
  96:Core/Src/adc.c ****   {
  97:Core/Src/adc.c ****   /* USER CODE BEGIN ADC1_MspInit 0 */
  98:Core/Src/adc.c **** 
  99:Core/Src/adc.c ****   /* USER CODE END ADC1_MspInit 0 */
 100:Core/Src/adc.c ****     /* ADC1 clock enable */
 101:Core/Src/adc.c ****     __HAL_RCC_ADC1_CLK_ENABLE();
 102:Core/Src/adc.c **** 
 103:Core/Src/adc.c ****     __HAL_RCC_GPIOA_CLK_ENABLE();
 104:Core/Src/adc.c ****     /**ADC1 GPIO Configuration
 105:Core/Src/adc.c ****     PA0-WKUP     ------> ADC1_IN0
 106:Core/Src/adc.c ****     PA1     ------> ADC1_IN1
 107:Core/Src/adc.c ****     PA2     ------> ADC1_IN2
 108:Core/Src/adc.c ****     */
 109:Core/Src/adc.c ****     GPIO_InitStruct.Pin = GPIO_PIN_0|GPIO_PIN_1|GPIO_PIN_2;
 110:Core/Src/adc.c ****     GPIO_InitStruct.Mode = GPIO_MODE_ANALOG;
 111:Core/Src/adc.c ****     HAL_GPIO_Init(GPIOA, &GPIO_InitStruct);
 112:Core/Src/adc.c **** 
 113:Core/Src/adc.c ****     /* ADC1 DMA Init */
 114:Core/Src/adc.c ****     /* ADC1 Init */
 115:Core/Src/adc.c ****     hdma_adc1.Instance = DMA1_Channel1;
 116:Core/Src/adc.c ****     hdma_adc1.Init.Direction = DMA_PERIPH_TO_MEMORY;
 117:Core/Src/adc.c ****     hdma_adc1.Init.PeriphInc = DMA_PINC_DISABLE;
 118:Core/Src/adc.c ****     hdma_adc1.Init.MemInc = DMA_MINC_ENABLE;
 119:Core/Src/adc.c ****     hdma_adc1.Init.PeriphDataAlignment = DMA_PDATAALIGN_HALFWORD;
 120:Core/Src/adc.c ****     hdma_adc1.Init.MemDataAlignment = DMA_MDATAALIGN_HALFWORD;
 121:Core/Src/adc.c ****     hdma_adc1.Init.Mode = DMA_CIRCULAR;
 122:Core/Src/adc.c ****     hdma_adc1.Init.Priority = DMA_PRIORITY_VERY_HIGH;
 123:Core/Src/adc.c ****     if (HAL_DMA_Init(&hdma_adc1) != HAL_OK)
 124:Core/Src/adc.c ****     {
 125:Core/Src/adc.c ****       Error_Handler();
 126:Core/Src/adc.c ****     }
 127:Core/Src/adc.c **** 
 128:Core/Src/adc.c ****     __HAL_LINKDMA(adcHandle,DMA_Handle,hdma_adc1);
 129:Core/Src/adc.c **** 
 130:Core/Src/adc.c ****   /* USER CODE BEGIN ADC1_MspInit 1 */
 131:Core/Src/adc.c **** 
 132:Core/Src/adc.c ****   /* USER CODE END ADC1_MspInit 1 */
 133:Core/Src/adc.c ****   }
ARM GAS  C:\Users\Admin\AppData\Local\Temp\ccCv8fv6.s 			page 7


 134:Core/Src/adc.c **** }
 209              		.loc 1 134 1 view .LVU56
 210 0016 06B0     		add	sp, sp, #24
 211              	.LCFI6:
 212              		.cfi_remember_state
 213              		.cfi_def_cfa_offset 8
 214              		@ sp needed
 215 0018 10BD     		pop	{r4, pc}
 216              	.LVL10:
 217              	.L17:
 218              	.LCFI7:
 219              		.cfi_restore_state
 220              		.loc 1 134 1 view .LVU57
 221 001a 0446     		mov	r4, r0
 101:Core/Src/adc.c **** 
 222              		.loc 1 101 5 is_stmt 1 view .LVU58
 223              	.LBB2:
 101:Core/Src/adc.c **** 
 224              		.loc 1 101 5 view .LVU59
 101:Core/Src/adc.c **** 
 225              		.loc 1 101 5 view .LVU60
 226 001c 03F56C43 		add	r3, r3, #60416
 227 0020 9A69     		ldr	r2, [r3, #24]
 228 0022 42F40072 		orr	r2, r2, #512
 229 0026 9A61     		str	r2, [r3, #24]
 101:Core/Src/adc.c **** 
 230              		.loc 1 101 5 view .LVU61
 231 0028 9A69     		ldr	r2, [r3, #24]
 232 002a 02F40072 		and	r2, r2, #512
 233 002e 0092     		str	r2, [sp]
 101:Core/Src/adc.c **** 
 234              		.loc 1 101 5 view .LVU62
 235 0030 009A     		ldr	r2, [sp]
 236              	.LBE2:
 101:Core/Src/adc.c **** 
 237              		.loc 1 101 5 view .LVU63
 103:Core/Src/adc.c ****     /**ADC1 GPIO Configuration
 238              		.loc 1 103 5 view .LVU64
 239              	.LBB3:
 103:Core/Src/adc.c ****     /**ADC1 GPIO Configuration
 240              		.loc 1 103 5 view .LVU65
 103:Core/Src/adc.c ****     /**ADC1 GPIO Configuration
 241              		.loc 1 103 5 view .LVU66
 242 0032 9A69     		ldr	r2, [r3, #24]
 243 0034 42F00402 		orr	r2, r2, #4
 244 0038 9A61     		str	r2, [r3, #24]
 103:Core/Src/adc.c ****     /**ADC1 GPIO Configuration
 245              		.loc 1 103 5 view .LVU67
 246 003a 9B69     		ldr	r3, [r3, #24]
 247 003c 03F00403 		and	r3, r3, #4
 248 0040 0193     		str	r3, [sp, #4]
 103:Core/Src/adc.c ****     /**ADC1 GPIO Configuration
 249              		.loc 1 103 5 view .LVU68
 250 0042 019B     		ldr	r3, [sp, #4]
 251              	.LBE3:
 103:Core/Src/adc.c ****     /**ADC1 GPIO Configuration
 252              		.loc 1 103 5 view .LVU69
ARM GAS  C:\Users\Admin\AppData\Local\Temp\ccCv8fv6.s 			page 8


 109:Core/Src/adc.c ****     GPIO_InitStruct.Mode = GPIO_MODE_ANALOG;
 253              		.loc 1 109 5 view .LVU70
 109:Core/Src/adc.c ****     GPIO_InitStruct.Mode = GPIO_MODE_ANALOG;
 254              		.loc 1 109 25 is_stmt 0 view .LVU71
 255 0044 0723     		movs	r3, #7
 256 0046 0293     		str	r3, [sp, #8]
 110:Core/Src/adc.c ****     HAL_GPIO_Init(GPIOA, &GPIO_InitStruct);
 257              		.loc 1 110 5 is_stmt 1 view .LVU72
 110:Core/Src/adc.c ****     HAL_GPIO_Init(GPIOA, &GPIO_InitStruct);
 258              		.loc 1 110 26 is_stmt 0 view .LVU73
 259 0048 0323     		movs	r3, #3
 260 004a 0393     		str	r3, [sp, #12]
 111:Core/Src/adc.c **** 
 261              		.loc 1 111 5 is_stmt 1 view .LVU74
 262 004c 02A9     		add	r1, sp, #8
 263 004e 1148     		ldr	r0, .L19+4
 264              	.LVL11:
 111:Core/Src/adc.c **** 
 265              		.loc 1 111 5 is_stmt 0 view .LVU75
 266 0050 FFF7FEFF 		bl	HAL_GPIO_Init
 267              	.LVL12:
 115:Core/Src/adc.c ****     hdma_adc1.Init.Direction = DMA_PERIPH_TO_MEMORY;
 268              		.loc 1 115 5 is_stmt 1 view .LVU76
 115:Core/Src/adc.c ****     hdma_adc1.Init.Direction = DMA_PERIPH_TO_MEMORY;
 269              		.loc 1 115 24 is_stmt 0 view .LVU77
 270 0054 1048     		ldr	r0, .L19+8
 271 0056 114B     		ldr	r3, .L19+12
 272 0058 0360     		str	r3, [r0]
 116:Core/Src/adc.c ****     hdma_adc1.Init.PeriphInc = DMA_PINC_DISABLE;
 273              		.loc 1 116 5 is_stmt 1 view .LVU78
 116:Core/Src/adc.c ****     hdma_adc1.Init.PeriphInc = DMA_PINC_DISABLE;
 274              		.loc 1 116 30 is_stmt 0 view .LVU79
 275 005a 0023     		movs	r3, #0
 276 005c 4360     		str	r3, [r0, #4]
 117:Core/Src/adc.c ****     hdma_adc1.Init.MemInc = DMA_MINC_ENABLE;
 277              		.loc 1 117 5 is_stmt 1 view .LVU80
 117:Core/Src/adc.c ****     hdma_adc1.Init.MemInc = DMA_MINC_ENABLE;
 278              		.loc 1 117 30 is_stmt 0 view .LVU81
 279 005e 8360     		str	r3, [r0, #8]
 118:Core/Src/adc.c ****     hdma_adc1.Init.PeriphDataAlignment = DMA_PDATAALIGN_HALFWORD;
 280              		.loc 1 118 5 is_stmt 1 view .LVU82
 118:Core/Src/adc.c ****     hdma_adc1.Init.PeriphDataAlignment = DMA_PDATAALIGN_HALFWORD;
 281              		.loc 1 118 27 is_stmt 0 view .LVU83
 282 0060 8023     		movs	r3, #128
 283 0062 C360     		str	r3, [r0, #12]
 119:Core/Src/adc.c ****     hdma_adc1.Init.MemDataAlignment = DMA_MDATAALIGN_HALFWORD;
 284              		.loc 1 119 5 is_stmt 1 view .LVU84
 119:Core/Src/adc.c ****     hdma_adc1.Init.MemDataAlignment = DMA_MDATAALIGN_HALFWORD;
 285              		.loc 1 119 40 is_stmt 0 view .LVU85
 286 0064 4FF48073 		mov	r3, #256
 287 0068 0361     		str	r3, [r0, #16]
 120:Core/Src/adc.c ****     hdma_adc1.Init.Mode = DMA_CIRCULAR;
 288              		.loc 1 120 5 is_stmt 1 view .LVU86
 120:Core/Src/adc.c ****     hdma_adc1.Init.Mode = DMA_CIRCULAR;
 289              		.loc 1 120 37 is_stmt 0 view .LVU87
 290 006a 4FF48063 		mov	r3, #1024
 291 006e 4361     		str	r3, [r0, #20]
ARM GAS  C:\Users\Admin\AppData\Local\Temp\ccCv8fv6.s 			page 9


 121:Core/Src/adc.c ****     hdma_adc1.Init.Priority = DMA_PRIORITY_VERY_HIGH;
 292              		.loc 1 121 5 is_stmt 1 view .LVU88
 121:Core/Src/adc.c ****     hdma_adc1.Init.Priority = DMA_PRIORITY_VERY_HIGH;
 293              		.loc 1 121 25 is_stmt 0 view .LVU89
 294 0070 2023     		movs	r3, #32
 295 0072 8361     		str	r3, [r0, #24]
 122:Core/Src/adc.c ****     if (HAL_DMA_Init(&hdma_adc1) != HAL_OK)
 296              		.loc 1 122 5 is_stmt 1 view .LVU90
 122:Core/Src/adc.c ****     if (HAL_DMA_Init(&hdma_adc1) != HAL_OK)
 297              		.loc 1 122 29 is_stmt 0 view .LVU91
 298 0074 4FF44053 		mov	r3, #12288
 299 0078 C361     		str	r3, [r0, #28]
 123:Core/Src/adc.c ****     {
 300              		.loc 1 123 5 is_stmt 1 view .LVU92
 123:Core/Src/adc.c ****     {
 301              		.loc 1 123 9 is_stmt 0 view .LVU93
 302 007a FFF7FEFF 		bl	HAL_DMA_Init
 303              	.LVL13:
 123:Core/Src/adc.c ****     {
 304              		.loc 1 123 8 view .LVU94
 305 007e 18B9     		cbnz	r0, .L18
 306              	.L15:
 128:Core/Src/adc.c **** 
 307              		.loc 1 128 5 is_stmt 1 view .LVU95
 128:Core/Src/adc.c **** 
 308              		.loc 1 128 5 view .LVU96
 309 0080 054B     		ldr	r3, .L19+8
 310 0082 2362     		str	r3, [r4, #32]
 128:Core/Src/adc.c **** 
 311              		.loc 1 128 5 view .LVU97
 312 0084 5C62     		str	r4, [r3, #36]
 128:Core/Src/adc.c **** 
 313              		.loc 1 128 5 view .LVU98
 314              		.loc 1 134 1 is_stmt 0 view .LVU99
 315 0086 C6E7     		b	.L13
 316              	.L18:
 125:Core/Src/adc.c ****     }
 317              		.loc 1 125 7 is_stmt 1 view .LVU100
 318 0088 FFF7FEFF 		bl	Error_Handler
 319              	.LVL14:
 320 008c F8E7     		b	.L15
 321              	.L20:
 322 008e 00BF     		.align	2
 323              	.L19:
 324 0090 00240140 		.word	1073816576
 325 0094 00080140 		.word	1073809408
 326 0098 00000000 		.word	.LANCHOR1
 327 009c 08000240 		.word	1073872904
 328              		.cfi_endproc
 329              	.LFE66:
 331              		.section	.text.HAL_ADC_MspDeInit,"ax",%progbits
 332              		.align	1
 333              		.global	HAL_ADC_MspDeInit
 334              		.syntax unified
 335              		.thumb
 336              		.thumb_func
 338              	HAL_ADC_MspDeInit:
ARM GAS  C:\Users\Admin\AppData\Local\Temp\ccCv8fv6.s 			page 10


 339              	.LVL15:
 340              	.LFB67:
 135:Core/Src/adc.c **** 
 136:Core/Src/adc.c **** void HAL_ADC_MspDeInit(ADC_HandleTypeDef* adcHandle)
 137:Core/Src/adc.c **** {
 341              		.loc 1 137 1 view -0
 342              		.cfi_startproc
 343              		@ args = 0, pretend = 0, frame = 0
 344              		@ frame_needed = 0, uses_anonymous_args = 0
 138:Core/Src/adc.c **** 
 139:Core/Src/adc.c ****   if(adcHandle->Instance==ADC1)
 345              		.loc 1 139 3 view .LVU102
 346              		.loc 1 139 15 is_stmt 0 view .LVU103
 347 0000 0268     		ldr	r2, [r0]
 348              		.loc 1 139 5 view .LVU104
 349 0002 094B     		ldr	r3, .L28
 350 0004 9A42     		cmp	r2, r3
 351 0006 00D0     		beq	.L27
 352 0008 7047     		bx	lr
 353              	.L27:
 137:Core/Src/adc.c **** 
 354              		.loc 1 137 1 view .LVU105
 355 000a 10B5     		push	{r4, lr}
 356              	.LCFI8:
 357              		.cfi_def_cfa_offset 8
 358              		.cfi_offset 4, -8
 359              		.cfi_offset 14, -4
 360 000c 0446     		mov	r4, r0
 140:Core/Src/adc.c ****   {
 141:Core/Src/adc.c ****   /* USER CODE BEGIN ADC1_MspDeInit 0 */
 142:Core/Src/adc.c **** 
 143:Core/Src/adc.c ****   /* USER CODE END ADC1_MspDeInit 0 */
 144:Core/Src/adc.c ****     /* Peripheral clock disable */
 145:Core/Src/adc.c ****     __HAL_RCC_ADC1_CLK_DISABLE();
 361              		.loc 1 145 5 is_stmt 1 view .LVU106
 362 000e 074A     		ldr	r2, .L28+4
 363 0010 9369     		ldr	r3, [r2, #24]
 364 0012 23F40073 		bic	r3, r3, #512
 365 0016 9361     		str	r3, [r2, #24]
 146:Core/Src/adc.c **** 
 147:Core/Src/adc.c ****     /**ADC1 GPIO Configuration
 148:Core/Src/adc.c ****     PA0-WKUP     ------> ADC1_IN0
 149:Core/Src/adc.c ****     PA1     ------> ADC1_IN1
 150:Core/Src/adc.c ****     PA2     ------> ADC1_IN2
 151:Core/Src/adc.c ****     */
 152:Core/Src/adc.c ****     HAL_GPIO_DeInit(GPIOA, GPIO_PIN_0|GPIO_PIN_1|GPIO_PIN_2);
 366              		.loc 1 152 5 view .LVU107
 367 0018 0721     		movs	r1, #7
 368 001a 0548     		ldr	r0, .L28+8
 369              	.LVL16:
 370              		.loc 1 152 5 is_stmt 0 view .LVU108
 371 001c FFF7FEFF 		bl	HAL_GPIO_DeInit
 372              	.LVL17:
 153:Core/Src/adc.c **** 
 154:Core/Src/adc.c ****     /* ADC1 DMA DeInit */
 155:Core/Src/adc.c ****     HAL_DMA_DeInit(adcHandle->DMA_Handle);
 373              		.loc 1 155 5 is_stmt 1 view .LVU109
ARM GAS  C:\Users\Admin\AppData\Local\Temp\ccCv8fv6.s 			page 11


 374 0020 206A     		ldr	r0, [r4, #32]
 375 0022 FFF7FEFF 		bl	HAL_DMA_DeInit
 376              	.LVL18:
 156:Core/Src/adc.c ****   /* USER CODE BEGIN ADC1_MspDeInit 1 */
 157:Core/Src/adc.c **** 
 158:Core/Src/adc.c ****   /* USER CODE END ADC1_MspDeInit 1 */
 159:Core/Src/adc.c ****   }
 160:Core/Src/adc.c **** }
 377              		.loc 1 160 1 is_stmt 0 view .LVU110
 378 0026 10BD     		pop	{r4, pc}
 379              	.LVL19:
 380              	.L29:
 381              		.loc 1 160 1 view .LVU111
 382              		.align	2
 383              	.L28:
 384 0028 00240140 		.word	1073816576
 385 002c 00100240 		.word	1073876992
 386 0030 00080140 		.word	1073809408
 387              		.cfi_endproc
 388              	.LFE67:
 390              		.global	hdma_adc1
 391              		.global	hadc1
 392              		.section	.bss.hadc1,"aw",%nobits
 393              		.align	2
 394              		.set	.LANCHOR0,. + 0
 397              	hadc1:
 398 0000 00000000 		.space	48
 398      00000000 
 398      00000000 
 398      00000000 
 398      00000000 
 399              		.section	.bss.hdma_adc1,"aw",%nobits
 400              		.align	2
 401              		.set	.LANCHOR1,. + 0
 404              	hdma_adc1:
 405 0000 00000000 		.space	68
 405      00000000 
 405      00000000 
 405      00000000 
 405      00000000 
 406              		.text
 407              	.Letext0:
 408              		.file 2 "d:\\10 2021.10\\arm-none-eabi\\include\\machine\\_default_types.h"
 409              		.file 3 "d:\\10 2021.10\\arm-none-eabi\\include\\sys\\_stdint.h"
 410              		.file 4 "Drivers/CMSIS/Device/ST/STM32F1xx/Include/stm32f103xb.h"
 411              		.file 5 "Drivers/CMSIS/Device/ST/STM32F1xx/Include/stm32f1xx.h"
 412              		.file 6 "Drivers/STM32F1xx_HAL_Driver/Inc/stm32f1xx_hal_def.h"
 413              		.file 7 "Drivers/STM32F1xx_HAL_Driver/Inc/stm32f1xx_hal_gpio.h"
 414              		.file 8 "Drivers/STM32F1xx_HAL_Driver/Inc/stm32f1xx_hal_dma.h"
 415              		.file 9 "Drivers/STM32F1xx_HAL_Driver/Inc/stm32f1xx_hal_adc.h"
 416              		.file 10 "Core/Inc/adc.h"
 417              		.file 11 "Core/Inc/main.h"
ARM GAS  C:\Users\Admin\AppData\Local\Temp\ccCv8fv6.s 			page 12

