ARM GAS  C:\Users\Admin\AppData\Local\Temp\cctuuY6f.s 			page 1


   1              		.cpu cortex-m3
   2              		.arch armv7-m
   3              		.fpu softvfp
   4              		.eabi_attribute 20, 1
   5              		.eabi_attribute 21, 1
   6              		.eabi_attribute 23, 3
   7              		.eabi_attribute 24, 1
   8              		.eabi_attribute 25, 1
   9              		.eabi_attribute 26, 1
  10              		.eabi_attribute 30, 1
  11              		.eabi_attribute 34, 1
  12              		.eabi_attribute 18, 4
  13              		.file	"dht11.c"
  14              		.text
  15              	.Ltext0:
  16              		.cfi_sections	.debug_frame
  17              		.section	.text.Set_Pin_Output,"ax",%progbits
  18              		.align	1
  19              		.global	Set_Pin_Output
  20              		.syntax unified
  21              		.thumb
  22              		.thumb_func
  24              	Set_Pin_Output:
  25              	.LVL0:
  26              	.LFB65:
  27              		.file 1 "Core/Src/dht11.c"
   1:Core/Src/dht11.c **** #include "dht11.h"
   2:Core/Src/dht11.c **** #define DHT11_PORT GPIOA
   3:Core/Src/dht11.c **** #define DHT11_PIN GPIO_PIN_1
   4:Core/Src/dht11.c **** TIM_HandleTypeDef htim6;
   5:Core/Src/dht11.c **** 
   6:Core/Src/dht11.c **** void Set_Pin_Output (GPIO_TypeDef *GPIOx, uint16_t GPIO_Pin)
   7:Core/Src/dht11.c **** {
  28              		.loc 1 7 1 view -0
  29              		.cfi_startproc
  30              		@ args = 0, pretend = 0, frame = 16
  31              		@ frame_needed = 0, uses_anonymous_args = 0
  32              		.loc 1 7 1 is_stmt 0 view .LVU1
  33 0000 00B5     		push	{lr}
  34              	.LCFI0:
  35              		.cfi_def_cfa_offset 4
  36              		.cfi_offset 14, -4
  37 0002 85B0     		sub	sp, sp, #20
  38              	.LCFI1:
  39              		.cfi_def_cfa_offset 24
   8:Core/Src/dht11.c **** 	GPIO_InitTypeDef GPIO_InitStruct = {0};
  40              		.loc 1 8 2 is_stmt 1 view .LVU2
  41              		.loc 1 8 19 is_stmt 0 view .LVU3
  42 0004 0023     		movs	r3, #0
  43 0006 0093     		str	r3, [sp]
  44 0008 0193     		str	r3, [sp, #4]
  45 000a 0293     		str	r3, [sp, #8]
  46 000c 0393     		str	r3, [sp, #12]
   9:Core/Src/dht11.c **** 	GPIO_InitStruct.Pin = GPIO_Pin;
  47              		.loc 1 9 2 is_stmt 1 view .LVU4
  48              		.loc 1 9 22 is_stmt 0 view .LVU5
  49 000e 0091     		str	r1, [sp]
ARM GAS  C:\Users\Admin\AppData\Local\Temp\cctuuY6f.s 			page 2


  10:Core/Src/dht11.c **** 	GPIO_InitStruct.Mode = GPIO_MODE_OUTPUT_PP;
  50              		.loc 1 10 2 is_stmt 1 view .LVU6
  51              		.loc 1 10 23 is_stmt 0 view .LVU7
  52 0010 0123     		movs	r3, #1
  53 0012 0193     		str	r3, [sp, #4]
  11:Core/Src/dht11.c **** 	GPIO_InitStruct.Speed = GPIO_SPEED_FREQ_LOW;
  54              		.loc 1 11 2 is_stmt 1 view .LVU8
  55              		.loc 1 11 24 is_stmt 0 view .LVU9
  56 0014 0223     		movs	r3, #2
  57 0016 0393     		str	r3, [sp, #12]
  12:Core/Src/dht11.c **** 	HAL_GPIO_Init(GPIOx, &GPIO_InitStruct);
  58              		.loc 1 12 2 is_stmt 1 view .LVU10
  59 0018 6946     		mov	r1, sp
  60              	.LVL1:
  61              		.loc 1 12 2 is_stmt 0 view .LVU11
  62 001a FFF7FEFF 		bl	HAL_GPIO_Init
  63              	.LVL2:
  13:Core/Src/dht11.c **** }
  64              		.loc 1 13 1 view .LVU12
  65 001e 05B0     		add	sp, sp, #20
  66              	.LCFI2:
  67              		.cfi_def_cfa_offset 4
  68              		@ sp needed
  69 0020 5DF804FB 		ldr	pc, [sp], #4
  70              		.cfi_endproc
  71              	.LFE65:
  73              		.section	.text.Set_Pin_Input,"ax",%progbits
  74              		.align	1
  75              		.global	Set_Pin_Input
  76              		.syntax unified
  77              		.thumb
  78              		.thumb_func
  80              	Set_Pin_Input:
  81              	.LVL3:
  82              	.LFB66:
  14:Core/Src/dht11.c **** 
  15:Core/Src/dht11.c **** void Set_Pin_Input (GPIO_TypeDef *GPIOx, uint16_t GPIO_Pin)
  16:Core/Src/dht11.c **** {
  83              		.loc 1 16 1 is_stmt 1 view -0
  84              		.cfi_startproc
  85              		@ args = 0, pretend = 0, frame = 16
  86              		@ frame_needed = 0, uses_anonymous_args = 0
  87              		.loc 1 16 1 is_stmt 0 view .LVU14
  88 0000 00B5     		push	{lr}
  89              	.LCFI3:
  90              		.cfi_def_cfa_offset 4
  91              		.cfi_offset 14, -4
  92 0002 85B0     		sub	sp, sp, #20
  93              	.LCFI4:
  94              		.cfi_def_cfa_offset 24
  17:Core/Src/dht11.c **** 	GPIO_InitTypeDef GPIO_InitStruct = {0};
  95              		.loc 1 17 2 is_stmt 1 view .LVU15
  96              		.loc 1 17 19 is_stmt 0 view .LVU16
  97 0004 0023     		movs	r3, #0
  98 0006 0093     		str	r3, [sp]
  99 0008 0193     		str	r3, [sp, #4]
 100 000a 0293     		str	r3, [sp, #8]
ARM GAS  C:\Users\Admin\AppData\Local\Temp\cctuuY6f.s 			page 3


 101 000c 0393     		str	r3, [sp, #12]
  18:Core/Src/dht11.c **** 	GPIO_InitStruct.Pin = GPIO_Pin;
 102              		.loc 1 18 2 is_stmt 1 view .LVU17
 103              		.loc 1 18 22 is_stmt 0 view .LVU18
 104 000e 0091     		str	r1, [sp]
  19:Core/Src/dht11.c **** 	GPIO_InitStruct.Mode = GPIO_MODE_INPUT;
 105              		.loc 1 19 2 is_stmt 1 view .LVU19
  20:Core/Src/dht11.c **** 	GPIO_InitStruct.Pull = GPIO_PULLUP;
 106              		.loc 1 20 2 view .LVU20
 107              		.loc 1 20 23 is_stmt 0 view .LVU21
 108 0010 0123     		movs	r3, #1
 109 0012 0293     		str	r3, [sp, #8]
  21:Core/Src/dht11.c **** 	HAL_GPIO_Init(GPIOx, &GPIO_InitStruct);
 110              		.loc 1 21 2 is_stmt 1 view .LVU22
 111 0014 6946     		mov	r1, sp
 112              	.LVL4:
 113              		.loc 1 21 2 is_stmt 0 view .LVU23
 114 0016 FFF7FEFF 		bl	HAL_GPIO_Init
 115              	.LVL5:
  22:Core/Src/dht11.c **** }
 116              		.loc 1 22 1 view .LVU24
 117 001a 05B0     		add	sp, sp, #20
 118              	.LCFI5:
 119              		.cfi_def_cfa_offset 4
 120              		@ sp needed
 121 001c 5DF804FB 		ldr	pc, [sp], #4
 122              		.cfi_endproc
 123              	.LFE66:
 125              		.section	.text.delay,"ax",%progbits
 126              		.align	1
 127              		.global	delay
 128              		.syntax unified
 129              		.thumb
 130              		.thumb_func
 132              	delay:
 133              	.LVL6:
 134              	.LFB67:
  23:Core/Src/dht11.c **** 
  24:Core/Src/dht11.c **** void delay(uint16_t time)
  25:Core/Src/dht11.c **** {
 135              		.loc 1 25 1 is_stmt 1 view -0
 136              		.cfi_startproc
 137              		@ args = 0, pretend = 0, frame = 0
 138              		@ frame_needed = 0, uses_anonymous_args = 0
 139              		@ link register save eliminated.
  26:Core/Src/dht11.c ****   //unit us
  27:Core/Src/dht11.c ****   __HAL_TIM_SET_COUNTER(&htim1, 0);
 140              		.loc 1 27 3 view .LVU26
 141 0000 034B     		ldr	r3, .L7
 142 0002 1A68     		ldr	r2, [r3]
 143 0004 0023     		movs	r3, #0
 144 0006 5362     		str	r3, [r2, #36]
  28:Core/Src/dht11.c ****   //uint16_t a= (__HAL_TIM_GET_COUNTER(&htim1));
  29:Core/Src/dht11.c ****   while(__HAL_TIM_GET_COUNTER(&htim1)<time);
 145              		.loc 1 29 3 view .LVU27
 146              	.L6:
 147              		.loc 1 29 44 discriminator 1 view .LVU28
ARM GAS  C:\Users\Admin\AppData\Local\Temp\cctuuY6f.s 			page 4


 148              		.loc 1 29 8 discriminator 1 view .LVU29
 149              		.loc 1 29 9 is_stmt 0 discriminator 1 view .LVU30
 150 0008 536A     		ldr	r3, [r2, #36]
 151              		.loc 1 29 8 discriminator 1 view .LVU31
 152 000a 8342     		cmp	r3, r0
 153 000c FCD3     		bcc	.L6
  30:Core/Src/dht11.c **** }
 154              		.loc 1 30 1 view .LVU32
 155 000e 7047     		bx	lr
 156              	.L8:
 157              		.align	2
 158              	.L7:
 159 0010 00000000 		.word	htim1
 160              		.cfi_endproc
 161              	.LFE67:
 163              		.section	.text.DHT11_Start,"ax",%progbits
 164              		.align	1
 165              		.global	DHT11_Start
 166              		.syntax unified
 167              		.thumb
 168              		.thumb_func
 170              	DHT11_Start:
 171              	.LFB68:
  31:Core/Src/dht11.c **** 
  32:Core/Src/dht11.c **** void DHT11_Start (void)
  33:Core/Src/dht11.c **** {
 172              		.loc 1 33 1 is_stmt 1 view -0
 173              		.cfi_startproc
 174              		@ args = 0, pretend = 0, frame = 0
 175              		@ frame_needed = 0, uses_anonymous_args = 0
 176 0000 10B5     		push	{r4, lr}
 177              	.LCFI6:
 178              		.cfi_def_cfa_offset 8
 179              		.cfi_offset 4, -8
 180              		.cfi_offset 14, -4
  34:Core/Src/dht11.c **** 	Set_Pin_Output (DHT11_PORT, DHT11_PIN);  // set the pin as output
 181              		.loc 1 34 2 view .LVU34
 182 0002 0D4C     		ldr	r4, .L11
 183 0004 0221     		movs	r1, #2
 184 0006 2046     		mov	r0, r4
 185 0008 FFF7FEFF 		bl	Set_Pin_Output
 186              	.LVL7:
  35:Core/Src/dht11.c **** 	HAL_GPIO_WritePin (DHT11_PORT, DHT11_PIN, 0);   // pull the pin low
 187              		.loc 1 35 2 view .LVU35
 188 000c 0022     		movs	r2, #0
 189 000e 0221     		movs	r1, #2
 190 0010 2046     		mov	r0, r4
 191 0012 FFF7FEFF 		bl	HAL_GPIO_WritePin
 192              	.LVL8:
  36:Core/Src/dht11.c **** 	delay (18000);   // wait for 18ms
 193              		.loc 1 36 2 view .LVU36
 194 0016 44F25060 		movw	r0, #18000
 195 001a FFF7FEFF 		bl	delay
 196              	.LVL9:
  37:Core/Src/dht11.c ****     HAL_GPIO_WritePin (DHT11_PORT, DHT11_PIN, 1);   // pull the pin high
 197              		.loc 1 37 5 view .LVU37
 198 001e 0122     		movs	r2, #1
ARM GAS  C:\Users\Admin\AppData\Local\Temp\cctuuY6f.s 			page 5


 199 0020 0221     		movs	r1, #2
 200 0022 2046     		mov	r0, r4
 201 0024 FFF7FEFF 		bl	HAL_GPIO_WritePin
 202              	.LVL10:
  38:Core/Src/dht11.c **** 	delay (20);   // wait for 20us
 203              		.loc 1 38 2 view .LVU38
 204 0028 1420     		movs	r0, #20
 205 002a FFF7FEFF 		bl	delay
 206              	.LVL11:
  39:Core/Src/dht11.c **** 	Set_Pin_Input(DHT11_PORT, DHT11_PIN);    // set as input
 207              		.loc 1 39 2 view .LVU39
 208 002e 0221     		movs	r1, #2
 209 0030 2046     		mov	r0, r4
 210 0032 FFF7FEFF 		bl	Set_Pin_Input
 211              	.LVL12:
  40:Core/Src/dht11.c **** }
 212              		.loc 1 40 1 is_stmt 0 view .LVU40
 213 0036 10BD     		pop	{r4, pc}
 214              	.L12:
 215              		.align	2
 216              	.L11:
 217 0038 00080140 		.word	1073809408
 218              		.cfi_endproc
 219              	.LFE68:
 221              		.section	.text.DHT11_Check_Response,"ax",%progbits
 222              		.align	1
 223              		.global	DHT11_Check_Response
 224              		.syntax unified
 225              		.thumb
 226              		.thumb_func
 228              	DHT11_Check_Response:
 229              	.LFB69:
  41:Core/Src/dht11.c **** 
  42:Core/Src/dht11.c **** uint8_t DHT11_Check_Response (void)
  43:Core/Src/dht11.c **** {
 230              		.loc 1 43 1 is_stmt 1 view -0
 231              		.cfi_startproc
 232              		@ args = 0, pretend = 0, frame = 0
 233              		@ frame_needed = 0, uses_anonymous_args = 0
 234 0000 10B5     		push	{r4, lr}
 235              	.LCFI7:
 236              		.cfi_def_cfa_offset 8
 237              		.cfi_offset 4, -8
 238              		.cfi_offset 14, -4
  44:Core/Src/dht11.c **** 	uint8_t Response = 0;
 239              		.loc 1 44 2 view .LVU42
 240              	.LVL13:
  45:Core/Src/dht11.c **** 	delay (40);
 241              		.loc 1 45 2 view .LVU43
 242 0002 2820     		movs	r0, #40
 243 0004 FFF7FEFF 		bl	delay
 244              	.LVL14:
  46:Core/Src/dht11.c **** 	if (!(HAL_GPIO_ReadPin (DHT11_PORT, DHT11_PIN)))
 245              		.loc 1 46 2 view .LVU44
 246              		.loc 1 46 8 is_stmt 0 view .LVU45
 247 0008 0221     		movs	r1, #2
 248 000a 0C48     		ldr	r0, .L20
ARM GAS  C:\Users\Admin\AppData\Local\Temp\cctuuY6f.s 			page 6


 249 000c FFF7FEFF 		bl	HAL_GPIO_ReadPin
 250              	.LVL15:
 251              		.loc 1 46 5 view .LVU46
 252 0010 40B1     		cbz	r0, .L19
  44:Core/Src/dht11.c **** 	uint8_t Response = 0;
 253              		.loc 1 44 10 view .LVU47
 254 0012 0024     		movs	r4, #0
 255              	.LVL16:
 256              	.L15:
  47:Core/Src/dht11.c **** 	{
  48:Core/Src/dht11.c **** 		delay (80);
  49:Core/Src/dht11.c **** 		if ((HAL_GPIO_ReadPin (DHT11_PORT, DHT11_PIN))) Response = 1;
  50:Core/Src/dht11.c **** 		else Response = -1; // 255
  51:Core/Src/dht11.c **** 	}
  52:Core/Src/dht11.c **** 	while ((HAL_GPIO_ReadPin (DHT11_PORT, DHT11_PIN)));   // wait for the pin to go high
 257              		.loc 1 52 52 is_stmt 1 discriminator 1 view .LVU48
 258              		.loc 1 52 8 discriminator 1 view .LVU49
 259              		.loc 1 52 10 is_stmt 0 discriminator 1 view .LVU50
 260 0014 0221     		movs	r1, #2
 261 0016 0948     		ldr	r0, .L20
 262 0018 FFF7FEFF 		bl	HAL_GPIO_ReadPin
 263              	.LVL17:
 264              		.loc 1 52 8 discriminator 1 view .LVU51
 265 001c 0028     		cmp	r0, #0
 266 001e F9D1     		bne	.L15
  53:Core/Src/dht11.c **** 
  54:Core/Src/dht11.c **** 	return Response;
 267              		.loc 1 54 2 is_stmt 1 view .LVU52
  55:Core/Src/dht11.c **** }
 268              		.loc 1 55 1 is_stmt 0 view .LVU53
 269 0020 2046     		mov	r0, r4
 270 0022 10BD     		pop	{r4, pc}
 271              	.LVL18:
 272              	.L19:
  48:Core/Src/dht11.c **** 		if ((HAL_GPIO_ReadPin (DHT11_PORT, DHT11_PIN))) Response = 1;
 273              		.loc 1 48 3 is_stmt 1 view .LVU54
 274 0024 5020     		movs	r0, #80
 275 0026 FFF7FEFF 		bl	delay
 276              	.LVL19:
  49:Core/Src/dht11.c **** 		else Response = -1; // 255
 277              		.loc 1 49 3 view .LVU55
  49:Core/Src/dht11.c **** 		else Response = -1; // 255
 278              		.loc 1 49 8 is_stmt 0 view .LVU56
 279 002a 0221     		movs	r1, #2
 280 002c 0348     		ldr	r0, .L20
 281 002e FFF7FEFF 		bl	HAL_GPIO_ReadPin
 282              	.LVL20:
  49:Core/Src/dht11.c **** 		else Response = -1; // 255
 283              		.loc 1 49 6 view .LVU57
 284 0032 08B1     		cbz	r0, .L17
  49:Core/Src/dht11.c **** 		else Response = -1; // 255
 285              		.loc 1 49 60 view .LVU58
 286 0034 0124     		movs	r4, #1
 287 0036 EDE7     		b	.L15
 288              	.L17:
  50:Core/Src/dht11.c **** 	}
 289              		.loc 1 50 17 view .LVU59
ARM GAS  C:\Users\Admin\AppData\Local\Temp\cctuuY6f.s 			page 7


 290 0038 FF24     		movs	r4, #255
 291              	.LVL21:
  50:Core/Src/dht11.c **** 	}
 292              		.loc 1 50 17 view .LVU60
 293 003a EBE7     		b	.L15
 294              	.L21:
 295              		.align	2
 296              	.L20:
 297 003c 00080140 		.word	1073809408
 298              		.cfi_endproc
 299              	.LFE69:
 301              		.section	.text.DHT11_Read,"ax",%progbits
 302              		.align	1
 303              		.global	DHT11_Read
 304              		.syntax unified
 305              		.thumb
 306              		.thumb_func
 308              	DHT11_Read:
 309              	.LFB70:
  56:Core/Src/dht11.c **** 
  57:Core/Src/dht11.c **** uint8_t DHT11_Read (void)
  58:Core/Src/dht11.c **** {
 310              		.loc 1 58 1 is_stmt 1 view -0
 311              		.cfi_startproc
 312              		@ args = 0, pretend = 0, frame = 0
 313              		@ frame_needed = 0, uses_anonymous_args = 0
 314 0000 38B5     		push	{r3, r4, r5, lr}
 315              	.LCFI8:
 316              		.cfi_def_cfa_offset 16
 317              		.cfi_offset 3, -16
 318              		.cfi_offset 4, -12
 319              		.cfi_offset 5, -8
 320              		.cfi_offset 14, -4
 321 0002 0025     		movs	r5, #0
  59:Core/Src/dht11.c **** 	uint8_t i,j;
 322              		.loc 1 59 2 view .LVU62
  60:Core/Src/dht11.c **** 	for (j=0;j<8;j++)
 323              		.loc 1 60 2 view .LVU63
 324              	.LVL22:
 325              		.loc 1 60 8 is_stmt 0 view .LVU64
 326 0004 2C46     		mov	r4, r5
 327              		.loc 1 60 2 view .LVU65
 328 0006 0DE0     		b	.L23
 329              	.LVL23:
 330              	.L25:
  61:Core/Src/dht11.c **** 	{
  62:Core/Src/dht11.c **** 		while (!(HAL_GPIO_ReadPin (DHT11_PORT, DHT11_PIN)));   // wait for the pin to go high
  63:Core/Src/dht11.c **** 		delay (40);   // wait for 40 us
  64:Core/Src/dht11.c **** 		if (!(HAL_GPIO_ReadPin (DHT11_PORT, DHT11_PIN)))   // if the pin is low
  65:Core/Src/dht11.c **** 		{
  66:Core/Src/dht11.c **** 			i&= ~(1<<(7-j));   // write 0
  67:Core/Src/dht11.c **** 		}
  68:Core/Src/dht11.c **** 		else i|= (1<<(7-j));  // if the pin is high, write 1
 331              		.loc 1 68 8 is_stmt 1 view .LVU66
 332              		.loc 1 68 18 is_stmt 0 view .LVU67
 333 0008 C4F10702 		rsb	r2, r4, #7
 334              		.loc 1 68 14 view .LVU68
ARM GAS  C:\Users\Admin\AppData\Local\Temp\cctuuY6f.s 			page 8


 335 000c 0123     		movs	r3, #1
 336 000e 9340     		lsls	r3, r3, r2
 337              		.loc 1 68 9 view .LVU69
 338 0010 2B43     		orrs	r3, r3, r5
 339 0012 DDB2     		uxtb	r5, r3
 340              	.LVL24:
 341              	.L27:
  69:Core/Src/dht11.c **** 		while ((HAL_GPIO_ReadPin (DHT11_PORT, DHT11_PIN)));  // wait for the pin to go low
 342              		.loc 1 69 53 is_stmt 1 discriminator 1 view .LVU70
 343              		.loc 1 69 9 discriminator 1 view .LVU71
 344              		.loc 1 69 11 is_stmt 0 discriminator 1 view .LVU72
 345 0014 0221     		movs	r1, #2
 346 0016 1048     		ldr	r0, .L30
 347 0018 FFF7FEFF 		bl	HAL_GPIO_ReadPin
 348              	.LVL25:
 349              		.loc 1 69 9 discriminator 1 view .LVU73
 350 001c 0028     		cmp	r0, #0
 351 001e F9D1     		bne	.L27
  60:Core/Src/dht11.c **** 	for (j=0;j<8;j++)
 352              		.loc 1 60 15 is_stmt 1 discriminator 2 view .LVU74
  60:Core/Src/dht11.c **** 	for (j=0;j<8;j++)
 353              		.loc 1 60 16 is_stmt 0 discriminator 2 view .LVU75
 354 0020 0134     		adds	r4, r4, #1
 355              	.LVL26:
  60:Core/Src/dht11.c **** 	for (j=0;j<8;j++)
 356              		.loc 1 60 16 discriminator 2 view .LVU76
 357 0022 E4B2     		uxtb	r4, r4
 358              	.LVL27:
 359              	.L23:
  60:Core/Src/dht11.c **** 	for (j=0;j<8;j++)
 360              		.loc 1 60 11 is_stmt 1 discriminator 1 view .LVU77
  60:Core/Src/dht11.c **** 	for (j=0;j<8;j++)
 361              		.loc 1 60 2 is_stmt 0 discriminator 1 view .LVU78
 362 0024 072C     		cmp	r4, #7
 363 0026 15D8     		bhi	.L29
 364              	.L24:
  62:Core/Src/dht11.c **** 		delay (40);   // wait for 40 us
 365              		.loc 1 62 54 is_stmt 1 discriminator 1 view .LVU79
  62:Core/Src/dht11.c **** 		delay (40);   // wait for 40 us
 366              		.loc 1 62 9 discriminator 1 view .LVU80
  62:Core/Src/dht11.c **** 		delay (40);   // wait for 40 us
 367              		.loc 1 62 12 is_stmt 0 discriminator 1 view .LVU81
 368 0028 0221     		movs	r1, #2
 369 002a 0B48     		ldr	r0, .L30
 370 002c FFF7FEFF 		bl	HAL_GPIO_ReadPin
 371              	.LVL28:
  62:Core/Src/dht11.c **** 		delay (40);   // wait for 40 us
 372              		.loc 1 62 9 discriminator 1 view .LVU82
 373 0030 0028     		cmp	r0, #0
 374 0032 F9D0     		beq	.L24
  63:Core/Src/dht11.c **** 		if (!(HAL_GPIO_ReadPin (DHT11_PORT, DHT11_PIN)))   // if the pin is low
 375              		.loc 1 63 3 is_stmt 1 view .LVU83
 376 0034 2820     		movs	r0, #40
 377 0036 FFF7FEFF 		bl	delay
 378              	.LVL29:
  64:Core/Src/dht11.c **** 		{
 379              		.loc 1 64 3 view .LVU84
ARM GAS  C:\Users\Admin\AppData\Local\Temp\cctuuY6f.s 			page 9


  64:Core/Src/dht11.c **** 		{
 380              		.loc 1 64 9 is_stmt 0 view .LVU85
 381 003a 0221     		movs	r1, #2
 382 003c 0648     		ldr	r0, .L30
 383 003e FFF7FEFF 		bl	HAL_GPIO_ReadPin
 384              	.LVL30:
  64:Core/Src/dht11.c **** 		{
 385              		.loc 1 64 6 view .LVU86
 386 0042 0028     		cmp	r0, #0
 387 0044 E0D1     		bne	.L25
  66:Core/Src/dht11.c **** 		}
 388              		.loc 1 66 4 is_stmt 1 view .LVU87
  66:Core/Src/dht11.c **** 		}
 389              		.loc 1 66 15 is_stmt 0 view .LVU88
 390 0046 C4F10702 		rsb	r2, r4, #7
  66:Core/Src/dht11.c **** 		}
 391              		.loc 1 66 11 view .LVU89
 392 004a 0123     		movs	r3, #1
 393 004c 9340     		lsls	r3, r3, r2
  66:Core/Src/dht11.c **** 		}
 394              		.loc 1 66 5 view .LVU90
 395 004e 25EA0305 		bic	r5, r5, r3
 396              	.LVL31:
  66:Core/Src/dht11.c **** 		}
 397              		.loc 1 66 5 view .LVU91
 398 0052 DFE7     		b	.L27
 399              	.L29:
  70:Core/Src/dht11.c **** 	}
  71:Core/Src/dht11.c **** 	return i;
 400              		.loc 1 71 2 is_stmt 1 view .LVU92
  72:Core/Src/dht11.c **** }...
 401              		.loc 1 72 1 is_stmt 0 view .LVU93
 402 0054 2846     		mov	r0, r5
 403 0056 38BD     		pop	{r3, r4, r5, pc}
 404              	.LVL32:
 405              	.L31:
 406              		.loc 1 72 1 view .LVU94
 407              		.align	2
 408              	.L30:
 409 0058 00080140 		.word	1073809408
 410              		.cfi_endproc
 411              	.LFE70:
 413              		.global	htim6
 414              		.section	.bss.htim6,"aw",%nobits
 415              		.align	2
 418              	htim6:
 419 0000 00000000 		.space	72
 419      00000000 
 419      00000000 
 419      00000000 
 419      00000000 
 420              		.text
 421              	.Letext0:
 422              		.file 2 "d:\\10 2021.10\\arm-none-eabi\\include\\machine\\_default_types.h"
 423              		.file 3 "d:\\10 2021.10\\arm-none-eabi\\include\\sys\\_stdint.h"
 424              		.file 4 "Drivers/CMSIS/Device/ST/STM32F1xx/Include/stm32f103xb.h"
 425              		.file 5 "Drivers/STM32F1xx_HAL_Driver/Inc/stm32f1xx_hal_def.h"
ARM GAS  C:\Users\Admin\AppData\Local\Temp\cctuuY6f.s 			page 10


 426              		.file 6 "Drivers/STM32F1xx_HAL_Driver/Inc/stm32f1xx_hal_gpio.h"
 427              		.file 7 "Drivers/STM32F1xx_HAL_Driver/Inc/stm32f1xx_hal_dma.h"
 428              		.file 8 "Drivers/STM32F1xx_HAL_Driver/Inc/stm32f1xx_hal_tim.h"
 429              		.file 9 "Core/Inc/tim.h"
ARM GAS  C:\Users\Admin\AppData\Local\Temp\cctuuY6f.s 			page 11

